	.file	"Minimum_Lines_to_Cover.cpp"
	.intel_syntax noprefix
	.section	.text._ZnwjPv,"axG",@progbits,_ZnwjPv,comdat
	.weak	_ZnwjPv
	.type	_ZnwjPv, @function
_ZnwjPv:
	push	ebp
	mov	ebp, esp
	mov	eax, DWORD PTR [ebp+12]
	pop	ebp
	ret
	.size	_ZnwjPv, .-_ZnwjPv
	.text
	.globl	_Z3gcdii
	.type	_Z3gcdii, @function
_Z3gcdii:
	push	ebp
	mov	ebp, esp
	sub	esp, 8
	cmp	DWORD PTR [ebp+12], 0
	jne	.L4
	mov	eax, DWORD PTR [ebp+8]
	jmp	.L5
.L4:
	mov	eax, DWORD PTR [ebp+8]
	cdq
	idiv	DWORD PTR [ebp+12]
	mov	eax, edx
	sub	esp, 8
	push	eax
	push	DWORD PTR [ebp+12]
	call	_Z3gcdii
	add	esp, 16
.L5:
	leave
	ret
	.size	_Z3gcdii, .-_Z3gcdii
	.globl	_Z14getReducedFormii
	.type	_Z14getReducedFormii, @function
_Z14getReducedFormii:
	push	ebp
	mov	ebp, esp
	sub	esp, 40
	mov	eax, DWORD PTR [ebp+8]
	mov	DWORD PTR [ebp-28], eax
	mov	eax, DWORD PTR gs:20
	mov	DWORD PTR [ebp-12], eax
	xor	eax, eax
	mov	eax, DWORD PTR [ebp+16]
	test	eax, eax
	jns	.L7
	neg	eax
.L7:
	mov	edx, eax
	mov	eax, DWORD PTR [ebp+12]
	test	eax, eax
	jns	.L8
	neg	eax
.L8:
	sub	esp, 8
	push	edx
	push	eax
	call	_Z3gcdii
	add	esp, 16
	mov	DWORD PTR [ebp-16], eax
	mov	eax, DWORD PTR [ebp+12]
	shr	eax, 31
	mov	dl, al
	mov	eax, DWORD PTR [ebp+16]
	shr	eax, 31
	xor	eax, edx
	mov	BYTE PTR [ebp-17], al
	cmp	BYTE PTR [ebp-17], 0
	je	.L9
	mov	eax, DWORD PTR [ebp+16]
	test	eax, eax
	jns	.L10
	neg	eax
.L10:
	cdq
	idiv	DWORD PTR [ebp-16]
	mov	ecx, eax
	mov	eax, DWORD PTR [ebp+12]
	test	eax, eax
	jns	.L11
	neg	eax
.L11:
	neg	eax
	cdq
	idiv	DWORD PTR [ebp-16]
	mov	edx, eax
	mov	eax, DWORD PTR [ebp-28]
	sub	esp, 4
	push	ecx
	push	edx
	push	eax
	call	_ZSt9make_pairIiiESt4pairIT_T0_ES1_S2_
	add	esp, 12
	jmp	.L6
.L9:
	mov	eax, DWORD PTR [ebp+16]
	test	eax, eax
	jns	.L13
	neg	eax
.L13:
	cdq
	idiv	DWORD PTR [ebp-16]
	mov	ecx, eax
	mov	eax, DWORD PTR [ebp+12]
	test	eax, eax
	jns	.L14
	neg	eax
.L14:
	cdq
	idiv	DWORD PTR [ebp-16]
	mov	edx, eax
	mov	eax, DWORD PTR [ebp-28]
	sub	esp, 4
	push	ecx
	push	edx
	push	eax
	call	_ZSt9make_pairIiiESt4pairIT_T0_ES1_S2_
	add	esp, 12
.L6:
	mov	eax, DWORD PTR [ebp-28]
	mov	ecx, DWORD PTR [ebp-12]
	xor	ecx, DWORD PTR gs:20
	je	.L15
	call	__stack_chk_fail
.L15:
	leave
	ret	4
	.size	_Z14getReducedFormii, .-_Z14getReducedFormii
	.section	.text._ZNSt3setISt4pairIiiESt4lessIS1_ESaIS1_EED2Ev,"axG",@progbits,_ZNSt3setISt4pairIiiESt4lessIS1_ESaIS1_EED5Ev,comdat
	.align 2
	.weak	_ZNSt3setISt4pairIiiESt4lessIS1_ESaIS1_EED2Ev
	.type	_ZNSt3setISt4pairIiiESt4lessIS1_ESaIS1_EED2Ev, @function
_ZNSt3setISt4pairIiiESt4lessIS1_ESaIS1_EED2Ev:
	push	ebp
	mov	ebp, esp
	sub	esp, 8
	mov	eax, DWORD PTR [ebp+8]
	sub	esp, 12
	push	eax
	call	_ZNSt8_Rb_treeISt4pairIiiES1_St9_IdentityIS1_ESt4lessIS1_ESaIS1_EED1Ev
	add	esp, 16
	nop
	leave
	ret
	.size	_ZNSt3setISt4pairIiiESt4lessIS1_ESaIS1_EED2Ev, .-_ZNSt3setISt4pairIiiESt4lessIS1_ESaIS1_EED2Ev
	.weak	_ZNSt3setISt4pairIiiESt4lessIS1_ESaIS1_EED1Ev
	.set	_ZNSt3setISt4pairIiiESt4lessIS1_ESaIS1_EED1Ev,_ZNSt3setISt4pairIiiESt4lessIS1_ESaIS1_EED2Ev
	.text
	.globl	_Z21minLinesToCoverPointsPA2_iiii
	.type	_Z21minLinesToCoverPointsPA2_iiii, @function
_Z21minLinesToCoverPointsPA2_iiii:
	push	ebp
	mov	ebp, esp
	push	ebx
	sub	esp, 84
	mov	eax, DWORD PTR [ebp+8]
	mov	DWORD PTR [ebp-76], eax
	mov	eax, DWORD PTR gs:20
	mov	DWORD PTR [ebp-12], eax
	xor	eax, eax
	sub	esp, 12
	lea	eax, [ebp-36]
	push	eax
	call	_ZNSt3setISt4pairIiiESt4lessIS1_ESaIS1_EEC1Ev
	add	esp, 16
	sub	esp, 12
	lea	eax, [ebp-52]
	push	eax
	call	_ZNSt4pairIiiEC1Ev
	add	esp, 16
	mov	DWORD PTR [ebp-68], 0
	mov	DWORD PTR [ebp-64], 0
.L20:
	mov	eax, DWORD PTR [ebp-64]
	cmp	eax, DWORD PTR [ebp+12]
	jge	.L18
	mov	eax, DWORD PTR [ebp-64]
	lea	edx, [0+eax*8]
	mov	eax, DWORD PTR [ebp-76]
	add	eax, edx
	mov	eax, DWORD PTR [eax]
	mov	DWORD PTR [ebp-60], eax
	mov	eax, DWORD PTR [ebp-64]
	lea	edx, [0+eax*8]
	mov	eax, DWORD PTR [ebp-76]
	add	eax, edx
	mov	eax, DWORD PTR [eax+4]
	mov	DWORD PTR [ebp-56], eax
	mov	eax, DWORD PTR [ebp-60]
	sub	eax, DWORD PTR [ebp+16]
	mov	ecx, eax
	mov	eax, DWORD PTR [ebp-56]
	sub	eax, DWORD PTR [ebp+20]
	mov	edx, eax
	lea	eax, [ebp-88]
	sub	esp, 4
	push	ecx
	push	edx
	push	eax
	call	_Z14getReducedFormii
	add	esp, 12
	mov	eax, DWORD PTR [ebp-88]
	mov	edx, DWORD PTR [ebp-84]
	mov	DWORD PTR [ebp-52], eax
	mov	DWORD PTR [ebp-48], edx
	lea	eax, [ebp-44]
	sub	esp, 8
	lea	edx, [ebp-36]
	push	edx
	push	eax
	call	_ZNKSt3setISt4pairIiiESt4lessIS1_ESaIS1_EE3endEv
	add	esp, 12
	lea	eax, [ebp-72]
	sub	esp, 4
	lea	edx, [ebp-52]
	push	edx
	lea	edx, [ebp-36]
	push	edx
	push	eax
	call	_ZNSt3setISt4pairIiiESt4lessIS1_ESaIS1_EE4findERKS1_
	add	esp, 12
	sub	esp, 8
	lea	eax, [ebp-44]
	push	eax
	lea	eax, [ebp-72]
	push	eax
	call	_ZNKSt23_Rb_tree_const_iteratorISt4pairIiiEEeqERKS2_
	add	esp, 16
	test	al, al
	je	.L19
	lea	eax, [ebp-44]
	sub	esp, 4
	lea	edx, [ebp-52]
	push	edx
	lea	edx, [ebp-36]
	push	edx
	push	eax
	call	_ZNSt3setISt4pairIiiESt4lessIS1_ESaIS1_EE6insertERKS1_
	add	esp, 12
	inc	DWORD PTR [ebp-68]
.L19:
	inc	DWORD PTR [ebp-64]
	jmp	.L20
.L18:
	mov	ebx, DWORD PTR [ebp-68]
	sub	esp, 12
	lea	eax, [ebp-36]
	push	eax
	call	_ZNSt3setISt4pairIiiESt4lessIS1_ESaIS1_EED1Ev
	add	esp, 16
	mov	eax, ebx
	mov	ecx, DWORD PTR [ebp-12]
	xor	ecx, DWORD PTR gs:20
	je	.L22
	call	__stack_chk_fail
.L22:
	mov	ebx, DWORD PTR [ebp-4]
	leave
	ret
	.size	_Z21minLinesToCoverPointsPA2_iiii, .-_Z21minLinesToCoverPointsPA2_iiii
	.section	.text._ZSt9make_pairIiiESt4pairIT_T0_ES1_S2_,"axG",@progbits,_ZSt9make_pairIiiESt4pairIT_T0_ES1_S2_,comdat
	.weak	_ZSt9make_pairIiiESt4pairIT_T0_ES1_S2_
	.type	_ZSt9make_pairIiiESt4pairIT_T0_ES1_S2_, @function
_ZSt9make_pairIiiESt4pairIT_T0_ES1_S2_:
	push	ebp
	mov	ebp, esp
	sub	esp, 8
	sub	esp, 4
	lea	eax, [ebp+16]
	push	eax
	lea	eax, [ebp+12]
	push	eax
	push	DWORD PTR [ebp+8]
	call	_ZNSt4pairIiiEC1ERKiS2_
	add	esp, 16
	mov	eax, DWORD PTR [ebp+8]
	leave
	ret	4
	.size	_ZSt9make_pairIiiESt4pairIT_T0_ES1_S2_, .-_ZSt9make_pairIiiESt4pairIT_T0_ES1_S2_
	.section	.text._ZNSt3setISt4pairIiiESt4lessIS1_ESaIS1_EEC2Ev,"axG",@progbits,_ZNSt3setISt4pairIiiESt4lessIS1_ESaIS1_EEC5Ev,comdat
	.align 2
	.weak	_ZNSt3setISt4pairIiiESt4lessIS1_ESaIS1_EEC2Ev
	.type	_ZNSt3setISt4pairIiiESt4lessIS1_ESaIS1_EEC2Ev, @function
_ZNSt3setISt4pairIiiESt4lessIS1_ESaIS1_EEC2Ev:
	push	ebp
	mov	ebp, esp
	sub	esp, 8
	mov	eax, DWORD PTR [ebp+8]
	sub	esp, 12
	push	eax
	call	_ZNSt8_Rb_treeISt4pairIiiES1_St9_IdentityIS1_ESt4lessIS1_ESaIS1_EEC1Ev
	add	esp, 16
	nop
	leave
	ret
	.size	_ZNSt3setISt4pairIiiESt4lessIS1_ESaIS1_EEC2Ev, .-_ZNSt3setISt4pairIiiESt4lessIS1_ESaIS1_EEC2Ev
	.weak	_ZNSt3setISt4pairIiiESt4lessIS1_ESaIS1_EEC1Ev
	.set	_ZNSt3setISt4pairIiiESt4lessIS1_ESaIS1_EEC1Ev,_ZNSt3setISt4pairIiiESt4lessIS1_ESaIS1_EEC2Ev
	.section	.text._ZNSt8_Rb_treeISt4pairIiiES1_St9_IdentityIS1_ESt4lessIS1_ESaIS1_EE13_Rb_tree_implIS5_Lb0EED2Ev,"axG",@progbits,_ZNSt8_Rb_treeISt4pairIiiES1_St9_IdentityIS1_ESt4lessIS1_ESaIS1_EE13_Rb_tree_implIS5_Lb0EED5Ev,comdat
	.align 2
	.weak	_ZNSt8_Rb_treeISt4pairIiiES1_St9_IdentityIS1_ESt4lessIS1_ESaIS1_EE13_Rb_tree_implIS5_Lb0EED2Ev
	.type	_ZNSt8_Rb_treeISt4pairIiiES1_St9_IdentityIS1_ESt4lessIS1_ESaIS1_EE13_Rb_tree_implIS5_Lb0EED2Ev, @function
_ZNSt8_Rb_treeISt4pairIiiES1_St9_IdentityIS1_ESt4lessIS1_ESaIS1_EE13_Rb_tree_implIS5_Lb0EED2Ev:
	push	ebp
	mov	ebp, esp
	sub	esp, 8
	sub	esp, 12
	push	DWORD PTR [ebp+8]
	call	_ZNSaISt13_Rb_tree_nodeISt4pairIiiEEED2Ev
	add	esp, 16
	nop
	leave
	ret
	.size	_ZNSt8_Rb_treeISt4pairIiiES1_St9_IdentityIS1_ESt4lessIS1_ESaIS1_EE13_Rb_tree_implIS5_Lb0EED2Ev, .-_ZNSt8_Rb_treeISt4pairIiiES1_St9_IdentityIS1_ESt4lessIS1_ESaIS1_EE13_Rb_tree_implIS5_Lb0EED2Ev
	.weak	_ZNSt8_Rb_treeISt4pairIiiES1_St9_IdentityIS1_ESt4lessIS1_ESaIS1_EE13_Rb_tree_implIS5_Lb0EED1Ev
	.set	_ZNSt8_Rb_treeISt4pairIiiES1_St9_IdentityIS1_ESt4lessIS1_ESaIS1_EE13_Rb_tree_implIS5_Lb0EED1Ev,_ZNSt8_Rb_treeISt4pairIiiES1_St9_IdentityIS1_ESt4lessIS1_ESaIS1_EE13_Rb_tree_implIS5_Lb0EED2Ev
	.section	.text._ZNSt8_Rb_treeISt4pairIiiES1_St9_IdentityIS1_ESt4lessIS1_ESaIS1_EED2Ev,"axG",@progbits,_ZNSt8_Rb_treeISt4pairIiiES1_St9_IdentityIS1_ESt4lessIS1_ESaIS1_EED5Ev,comdat
	.align 2
	.weak	_ZNSt8_Rb_treeISt4pairIiiES1_St9_IdentityIS1_ESt4lessIS1_ESaIS1_EED2Ev
	.type	_ZNSt8_Rb_treeISt4pairIiiES1_St9_IdentityIS1_ESt4lessIS1_ESaIS1_EED2Ev, @function
_ZNSt8_Rb_treeISt4pairIiiES1_St9_IdentityIS1_ESt4lessIS1_ESaIS1_EED2Ev:
	push	ebp
	mov	ebp, esp
	sub	esp, 8
	sub	esp, 12
	push	DWORD PTR [ebp+8]
	call	_ZNSt8_Rb_treeISt4pairIiiES1_St9_IdentityIS1_ESt4lessIS1_ESaIS1_EE8_M_beginEv
	add	esp, 16
	sub	esp, 8
	push	eax
	push	DWORD PTR [ebp+8]
	call	_ZNSt8_Rb_treeISt4pairIiiES1_St9_IdentityIS1_ESt4lessIS1_ESaIS1_EE8_M_eraseEPSt13_Rb_tree_nodeIS1_E
	add	esp, 16
	mov	eax, DWORD PTR [ebp+8]
	sub	esp, 12
	push	eax
	call	_ZNSt8_Rb_treeISt4pairIiiES1_St9_IdentityIS1_ESt4lessIS1_ESaIS1_EE13_Rb_tree_implIS5_Lb0EED1Ev
	add	esp, 16
	nop
	leave
	ret
	.size	_ZNSt8_Rb_treeISt4pairIiiES1_St9_IdentityIS1_ESt4lessIS1_ESaIS1_EED2Ev, .-_ZNSt8_Rb_treeISt4pairIiiES1_St9_IdentityIS1_ESt4lessIS1_ESaIS1_EED2Ev
	.weak	_ZNSt8_Rb_treeISt4pairIiiES1_St9_IdentityIS1_ESt4lessIS1_ESaIS1_EED1Ev
	.set	_ZNSt8_Rb_treeISt4pairIiiES1_St9_IdentityIS1_ESt4lessIS1_ESaIS1_EED1Ev,_ZNSt8_Rb_treeISt4pairIiiES1_St9_IdentityIS1_ESt4lessIS1_ESaIS1_EED2Ev
	.section	.text._ZNSt4pairIiiEC2Ev,"axG",@progbits,_ZNSt4pairIiiEC5Ev,comdat
	.align 2
	.weak	_ZNSt4pairIiiEC2Ev
	.type	_ZNSt4pairIiiEC2Ev, @function
_ZNSt4pairIiiEC2Ev:
	push	ebp
	mov	ebp, esp
	mov	eax, DWORD PTR [ebp+8]
	mov	DWORD PTR [eax], 0
	mov	eax, DWORD PTR [ebp+8]
	mov	DWORD PTR [eax+4], 0
	nop
	pop	ebp
	ret
	.size	_ZNSt4pairIiiEC2Ev, .-_ZNSt4pairIiiEC2Ev
	.weak	_ZNSt4pairIiiEC1Ev
	.set	_ZNSt4pairIiiEC1Ev,_ZNSt4pairIiiEC2Ev
	.section	.text._ZNSt3setISt4pairIiiESt4lessIS1_ESaIS1_EE4findERKS1_,"axG",@progbits,_ZNSt3setISt4pairIiiESt4lessIS1_ESaIS1_EE4findERKS1_,comdat
	.align 2
	.weak	_ZNSt3setISt4pairIiiESt4lessIS1_ESaIS1_EE4findERKS1_
	.type	_ZNSt3setISt4pairIiiESt4lessIS1_ESaIS1_EE4findERKS1_, @function
_ZNSt3setISt4pairIiiESt4lessIS1_ESaIS1_EE4findERKS1_:
	push	ebp
	mov	ebp, esp
	sub	esp, 40
	mov	eax, DWORD PTR [ebp+8]
	mov	DWORD PTR [ebp-28], eax
	mov	eax, DWORD PTR [ebp+12]
	mov	DWORD PTR [ebp-32], eax
	mov	eax, DWORD PTR [ebp+16]
	mov	DWORD PTR [ebp-36], eax
	mov	eax, DWORD PTR gs:20
	mov	DWORD PTR [ebp-12], eax
	xor	eax, eax
	mov	edx, DWORD PTR [ebp-32]
	lea	eax, [ebp-16]
	sub	esp, 4
	push	DWORD PTR [ebp-36]
	push	edx
	push	eax
	call	_ZNSt8_Rb_treeISt4pairIiiES1_St9_IdentityIS1_ESt4lessIS1_ESaIS1_EE4findERKS1_
	add	esp, 12
	sub	esp, 8
	lea	eax, [ebp-16]
	push	eax
	push	DWORD PTR [ebp-28]
	call	_ZNSt23_Rb_tree_const_iteratorISt4pairIiiEEC1ERKSt17_Rb_tree_iteratorIS1_E
	add	esp, 16
	mov	eax, DWORD PTR [ebp-28]
	mov	ecx, DWORD PTR [ebp-12]
	xor	ecx, DWORD PTR gs:20
	je	.L31
	call	__stack_chk_fail
.L31:
	leave
	ret	4
	.size	_ZNSt3setISt4pairIiiESt4lessIS1_ESaIS1_EE4findERKS1_, .-_ZNSt3setISt4pairIiiESt4lessIS1_ESaIS1_EE4findERKS1_
	.section	.text._ZNKSt3setISt4pairIiiESt4lessIS1_ESaIS1_EE3endEv,"axG",@progbits,_ZNKSt3setISt4pairIiiESt4lessIS1_ESaIS1_EE3endEv,comdat
	.align 2
	.weak	_ZNKSt3setISt4pairIiiESt4lessIS1_ESaIS1_EE3endEv
	.type	_ZNKSt3setISt4pairIiiESt4lessIS1_ESaIS1_EE3endEv, @function
_ZNKSt3setISt4pairIiiESt4lessIS1_ESaIS1_EE3endEv:
	push	ebp
	mov	ebp, esp
	sub	esp, 40
	mov	eax, DWORD PTR [ebp+8]
	mov	DWORD PTR [ebp-28], eax
	mov	eax, DWORD PTR [ebp+12]
	mov	DWORD PTR [ebp-32], eax
	mov	eax, DWORD PTR gs:20
	mov	DWORD PTR [ebp-12], eax
	xor	eax, eax
	mov	edx, DWORD PTR [ebp-32]
	mov	eax, DWORD PTR [ebp-28]
	sub	esp, 8
	push	edx
	push	eax
	call	_ZNKSt8_Rb_treeISt4pairIiiES1_St9_IdentityIS1_ESt4lessIS1_ESaIS1_EE3endEv
	add	esp, 12
	mov	eax, DWORD PTR [ebp-28]
	mov	ecx, DWORD PTR [ebp-12]
	xor	ecx, DWORD PTR gs:20
	je	.L34
	call	__stack_chk_fail
.L34:
	leave
	ret	4
	.size	_ZNKSt3setISt4pairIiiESt4lessIS1_ESaIS1_EE3endEv, .-_ZNKSt3setISt4pairIiiESt4lessIS1_ESaIS1_EE3endEv
	.section	.text._ZNKSt23_Rb_tree_const_iteratorISt4pairIiiEEeqERKS2_,"axG",@progbits,_ZNKSt23_Rb_tree_const_iteratorISt4pairIiiEEeqERKS2_,comdat
	.align 2
	.weak	_ZNKSt23_Rb_tree_const_iteratorISt4pairIiiEEeqERKS2_
	.type	_ZNKSt23_Rb_tree_const_iteratorISt4pairIiiEEeqERKS2_, @function
_ZNKSt23_Rb_tree_const_iteratorISt4pairIiiEEeqERKS2_:
	push	ebp
	mov	ebp, esp
	mov	eax, DWORD PTR [ebp+8]
	mov	edx, DWORD PTR [eax]
	mov	eax, DWORD PTR [ebp+12]
	mov	eax, DWORD PTR [eax]
	cmp	edx, eax
	sete	al
	pop	ebp
	ret
	.size	_ZNKSt23_Rb_tree_const_iteratorISt4pairIiiEEeqERKS2_, .-_ZNKSt23_Rb_tree_const_iteratorISt4pairIiiEEeqERKS2_
	.section	.text._ZNSt3setISt4pairIiiESt4lessIS1_ESaIS1_EE6insertERKS1_,"axG",@progbits,_ZNSt3setISt4pairIiiESt4lessIS1_ESaIS1_EE6insertERKS1_,comdat
	.align 2
	.weak	_ZNSt3setISt4pairIiiESt4lessIS1_ESaIS1_EE6insertERKS1_
	.type	_ZNSt3setISt4pairIiiESt4lessIS1_ESaIS1_EE6insertERKS1_, @function
_ZNSt3setISt4pairIiiESt4lessIS1_ESaIS1_EE6insertERKS1_:
	push	ebp
	mov	ebp, esp
	sub	esp, 40
	mov	eax, DWORD PTR [ebp+8]
	mov	DWORD PTR [ebp-28], eax
	mov	eax, DWORD PTR [ebp+12]
	mov	DWORD PTR [ebp-32], eax
	mov	eax, DWORD PTR [ebp+16]
	mov	DWORD PTR [ebp-36], eax
	mov	eax, DWORD PTR gs:20
	mov	DWORD PTR [ebp-12], eax
	xor	eax, eax
	mov	edx, DWORD PTR [ebp-32]
	lea	eax, [ebp-20]
	sub	esp, 4
	push	DWORD PTR [ebp-36]
	push	edx
	push	eax
	call	_ZNSt8_Rb_treeISt4pairIiiES1_St9_IdentityIS1_ESt4lessIS1_ESaIS1_EE16_M_insert_uniqueERKS1_
	add	esp, 12
	sub	esp, 8
	lea	eax, [ebp-20]
	push	eax
	lea	eax, [ebp-24]
	push	eax
	call	_ZNSt23_Rb_tree_const_iteratorISt4pairIiiEEC1ERKSt17_Rb_tree_iteratorIS1_E
	add	esp, 16
	sub	esp, 4
	lea	eax, [ebp-20]
	add	eax, 4
	push	eax
	lea	eax, [ebp-24]
	push	eax
	push	DWORD PTR [ebp-28]
	call	_ZNSt4pairISt23_Rb_tree_const_iteratorIS_IiiEEbEC1ERKS2_RKb
	add	esp, 16
	mov	eax, DWORD PTR [ebp-28]
	mov	ecx, DWORD PTR [ebp-12]
	xor	ecx, DWORD PTR gs:20
	je	.L39
	call	__stack_chk_fail
.L39:
	leave
	ret	4
	.size	_ZNSt3setISt4pairIiiESt4lessIS1_ESaIS1_EE6insertERKS1_, .-_ZNSt3setISt4pairIiiESt4lessIS1_ESaIS1_EE6insertERKS1_
	.section	.text._ZNSt4pairIiiEC2ERKiS2_,"axG",@progbits,_ZNSt4pairIiiEC5ERKiS2_,comdat
	.align 2
	.weak	_ZNSt4pairIiiEC2ERKiS2_
	.type	_ZNSt4pairIiiEC2ERKiS2_, @function
_ZNSt4pairIiiEC2ERKiS2_:
	push	ebp
	mov	ebp, esp
	mov	eax, DWORD PTR [ebp+12]
	mov	edx, DWORD PTR [eax]
	mov	eax, DWORD PTR [ebp+8]
	mov	DWORD PTR [eax], edx
	mov	eax, DWORD PTR [ebp+16]
	mov	edx, DWORD PTR [eax]
	mov	eax, DWORD PTR [ebp+8]
	mov	DWORD PTR [eax+4], edx
	nop
	pop	ebp
	ret
	.size	_ZNSt4pairIiiEC2ERKiS2_, .-_ZNSt4pairIiiEC2ERKiS2_
	.weak	_ZNSt4pairIiiEC1ERKiS2_
	.set	_ZNSt4pairIiiEC1ERKiS2_,_ZNSt4pairIiiEC2ERKiS2_
	.section	.text._ZNSt8_Rb_treeISt4pairIiiES1_St9_IdentityIS1_ESt4lessIS1_ESaIS1_EEC2Ev,"axG",@progbits,_ZNSt8_Rb_treeISt4pairIiiES1_St9_IdentityIS1_ESt4lessIS1_ESaIS1_EEC5Ev,comdat
	.align 2
	.weak	_ZNSt8_Rb_treeISt4pairIiiES1_St9_IdentityIS1_ESt4lessIS1_ESaIS1_EEC2Ev
	.type	_ZNSt8_Rb_treeISt4pairIiiES1_St9_IdentityIS1_ESt4lessIS1_ESaIS1_EEC2Ev, @function
_ZNSt8_Rb_treeISt4pairIiiES1_St9_IdentityIS1_ESt4lessIS1_ESaIS1_EEC2Ev:
	push	ebp
	mov	ebp, esp
	sub	esp, 8
	mov	eax, DWORD PTR [ebp+8]
	sub	esp, 12
	push	eax
	call	_ZNSt8_Rb_treeISt4pairIiiES1_St9_IdentityIS1_ESt4lessIS1_ESaIS1_EE13_Rb_tree_implIS5_Lb0EEC1Ev
	add	esp, 16
	nop
	leave
	ret
	.size	_ZNSt8_Rb_treeISt4pairIiiES1_St9_IdentityIS1_ESt4lessIS1_ESaIS1_EEC2Ev, .-_ZNSt8_Rb_treeISt4pairIiiES1_St9_IdentityIS1_ESt4lessIS1_ESaIS1_EEC2Ev
	.weak	_ZNSt8_Rb_treeISt4pairIiiES1_St9_IdentityIS1_ESt4lessIS1_ESaIS1_EEC1Ev
	.set	_ZNSt8_Rb_treeISt4pairIiiES1_St9_IdentityIS1_ESt4lessIS1_ESaIS1_EEC1Ev,_ZNSt8_Rb_treeISt4pairIiiES1_St9_IdentityIS1_ESt4lessIS1_ESaIS1_EEC2Ev
	.section	.text._ZNSaISt13_Rb_tree_nodeISt4pairIiiEEED2Ev,"axG",@progbits,_ZNSaISt13_Rb_tree_nodeISt4pairIiiEEED5Ev,comdat
	.align 2
	.weak	_ZNSaISt13_Rb_tree_nodeISt4pairIiiEEED2Ev
	.type	_ZNSaISt13_Rb_tree_nodeISt4pairIiiEEED2Ev, @function
_ZNSaISt13_Rb_tree_nodeISt4pairIiiEEED2Ev:
	push	ebp
	mov	ebp, esp
	sub	esp, 8
	sub	esp, 12
	push	DWORD PTR [ebp+8]
	call	_ZN9__gnu_cxx13new_allocatorISt13_Rb_tree_nodeISt4pairIiiEEED2Ev
	add	esp, 16
	nop
	leave
	ret
	.size	_ZNSaISt13_Rb_tree_nodeISt4pairIiiEEED2Ev, .-_ZNSaISt13_Rb_tree_nodeISt4pairIiiEEED2Ev
	.weak	_ZNSaISt13_Rb_tree_nodeISt4pairIiiEEED1Ev
	.set	_ZNSaISt13_Rb_tree_nodeISt4pairIiiEEED1Ev,_ZNSaISt13_Rb_tree_nodeISt4pairIiiEEED2Ev
	.section	.text._ZNSt8_Rb_treeISt4pairIiiES1_St9_IdentityIS1_ESt4lessIS1_ESaIS1_EE8_M_eraseEPSt13_Rb_tree_nodeIS1_E,"axG",@progbits,_ZNSt8_Rb_treeISt4pairIiiES1_St9_IdentityIS1_ESt4lessIS1_ESaIS1_EE8_M_eraseEPSt13_Rb_tree_nodeIS1_E,comdat
	.align 2
	.weak	_ZNSt8_Rb_treeISt4pairIiiES1_St9_IdentityIS1_ESt4lessIS1_ESaIS1_EE8_M_eraseEPSt13_Rb_tree_nodeIS1_E
	.type	_ZNSt8_Rb_treeISt4pairIiiES1_St9_IdentityIS1_ESt4lessIS1_ESaIS1_EE8_M_eraseEPSt13_Rb_tree_nodeIS1_E, @function
_ZNSt8_Rb_treeISt4pairIiiES1_St9_IdentityIS1_ESt4lessIS1_ESaIS1_EE8_M_eraseEPSt13_Rb_tree_nodeIS1_E:
	push	ebp
	mov	ebp, esp
	sub	esp, 24
.L45:
	cmp	DWORD PTR [ebp+12], 0
	je	.L46
	sub	esp, 12
	push	DWORD PTR [ebp+12]
	call	_ZNSt8_Rb_treeISt4pairIiiES1_St9_IdentityIS1_ESt4lessIS1_ESaIS1_EE8_S_rightEPSt18_Rb_tree_node_base
	add	esp, 16
	sub	esp, 8
	push	eax
	push	DWORD PTR [ebp+8]
	call	_ZNSt8_Rb_treeISt4pairIiiES1_St9_IdentityIS1_ESt4lessIS1_ESaIS1_EE8_M_eraseEPSt13_Rb_tree_nodeIS1_E
	add	esp, 16
	sub	esp, 12
	push	DWORD PTR [ebp+12]
	call	_ZNSt8_Rb_treeISt4pairIiiES1_St9_IdentityIS1_ESt4lessIS1_ESaIS1_EE7_S_leftEPSt18_Rb_tree_node_base
	add	esp, 16
	mov	DWORD PTR [ebp-12], eax
	sub	esp, 8
	push	DWORD PTR [ebp+12]
	push	DWORD PTR [ebp+8]
	call	_ZNSt8_Rb_treeISt4pairIiiES1_St9_IdentityIS1_ESt4lessIS1_ESaIS1_EE12_M_drop_nodeEPSt13_Rb_tree_nodeIS1_E
	add	esp, 16
	mov	eax, DWORD PTR [ebp-12]
	mov	DWORD PTR [ebp+12], eax
	jmp	.L45
.L46:
	nop
	leave
	ret
	.size	_ZNSt8_Rb_treeISt4pairIiiES1_St9_IdentityIS1_ESt4lessIS1_ESaIS1_EE8_M_eraseEPSt13_Rb_tree_nodeIS1_E, .-_ZNSt8_Rb_treeISt4pairIiiES1_St9_IdentityIS1_ESt4lessIS1_ESaIS1_EE8_M_eraseEPSt13_Rb_tree_nodeIS1_E
	.section	.text._ZNSt8_Rb_treeISt4pairIiiES1_St9_IdentityIS1_ESt4lessIS1_ESaIS1_EE8_M_beginEv,"axG",@progbits,_ZNSt8_Rb_treeISt4pairIiiES1_St9_IdentityIS1_ESt4lessIS1_ESaIS1_EE8_M_beginEv,comdat
	.align 2
	.weak	_ZNSt8_Rb_treeISt4pairIiiES1_St9_IdentityIS1_ESt4lessIS1_ESaIS1_EE8_M_beginEv
	.type	_ZNSt8_Rb_treeISt4pairIiiES1_St9_IdentityIS1_ESt4lessIS1_ESaIS1_EE8_M_beginEv, @function
_ZNSt8_Rb_treeISt4pairIiiES1_St9_IdentityIS1_ESt4lessIS1_ESaIS1_EE8_M_beginEv:
	push	ebp
	mov	ebp, esp
	mov	eax, DWORD PTR [ebp+8]
	mov	eax, DWORD PTR [eax+8]
	pop	ebp
	ret
	.size	_ZNSt8_Rb_treeISt4pairIiiES1_St9_IdentityIS1_ESt4lessIS1_ESaIS1_EE8_M_beginEv, .-_ZNSt8_Rb_treeISt4pairIiiES1_St9_IdentityIS1_ESt4lessIS1_ESaIS1_EE8_M_beginEv
	.section	.text._ZNSt8_Rb_treeISt4pairIiiES1_St9_IdentityIS1_ESt4lessIS1_ESaIS1_EE4findERKS1_,"axG",@progbits,_ZNSt8_Rb_treeISt4pairIiiES1_St9_IdentityIS1_ESt4lessIS1_ESaIS1_EE4findERKS1_,comdat
	.align 2
	.weak	_ZNSt8_Rb_treeISt4pairIiiES1_St9_IdentityIS1_ESt4lessIS1_ESaIS1_EE4findERKS1_
	.type	_ZNSt8_Rb_treeISt4pairIiiES1_St9_IdentityIS1_ESt4lessIS1_ESaIS1_EE4findERKS1_, @function
_ZNSt8_Rb_treeISt4pairIiiES1_St9_IdentityIS1_ESt4lessIS1_ESaIS1_EE4findERKS1_:
	push	ebp
	mov	ebp, esp
	push	ebx
	sub	esp, 36
	mov	eax, DWORD PTR [ebp+8]
	mov	DWORD PTR [ebp-28], eax
	mov	eax, DWORD PTR [ebp+12]
	mov	DWORD PTR [ebp-32], eax
	mov	eax, DWORD PTR [ebp+16]
	mov	DWORD PTR [ebp-36], eax
	mov	eax, DWORD PTR gs:20
	mov	DWORD PTR [ebp-12], eax
	xor	eax, eax
	sub	esp, 12
	push	DWORD PTR [ebp-32]
	call	_ZNSt8_Rb_treeISt4pairIiiES1_St9_IdentityIS1_ESt4lessIS1_ESaIS1_EE6_M_endEv
	add	esp, 16
	mov	ebx, eax
	sub	esp, 12
	push	DWORD PTR [ebp-32]
	call	_ZNSt8_Rb_treeISt4pairIiiES1_St9_IdentityIS1_ESt4lessIS1_ESaIS1_EE8_M_beginEv
	add	esp, 16
	mov	edx, eax
	lea	eax, [ebp-20]
	sub	esp, 12
	push	DWORD PTR [ebp-36]
	push	ebx
	push	edx
	push	DWORD PTR [ebp-32]
	push	eax
	call	_ZNSt8_Rb_treeISt4pairIiiES1_St9_IdentityIS1_ESt4lessIS1_ESaIS1_EE14_M_lower_boundEPSt13_Rb_tree_nodeIS1_ESA_RKS1_
	add	esp, 28
	lea	eax, [ebp-16]
	sub	esp, 8
	push	DWORD PTR [ebp-32]
	push	eax
	call	_ZNSt8_Rb_treeISt4pairIiiES1_St9_IdentityIS1_ESt4lessIS1_ESaIS1_EE3endEv
	add	esp, 12
	mov	bl, 1
	sub	esp, 8
	lea	eax, [ebp-16]
	push	eax
	lea	eax, [ebp-20]
	push	eax
	call	_ZNKSt17_Rb_tree_iteratorISt4pairIiiEEeqERKS2_
	add	esp, 16
	test	al, al
	jne	.L50
	mov	eax, DWORD PTR [ebp-20]
	sub	esp, 12
	push	eax
	call	_ZNSt8_Rb_treeISt4pairIiiES1_St9_IdentityIS1_ESt4lessIS1_ESaIS1_EE6_S_keyEPKSt18_Rb_tree_node_base
	add	esp, 16
	mov	edx, eax
	mov	eax, DWORD PTR [ebp-32]
	sub	esp, 4
	push	edx
	push	DWORD PTR [ebp-36]
	push	eax
	call	_ZNKSt4lessISt4pairIiiEEclERKS1_S4_
	add	esp, 16
	test	al, al
	je	.L51
.L50:
	mov	eax, DWORD PTR [ebp-28]
	sub	esp, 8
	push	DWORD PTR [ebp-32]
	push	eax
	call	_ZNSt8_Rb_treeISt4pairIiiES1_St9_IdentityIS1_ESt4lessIS1_ESaIS1_EE3endEv
	add	esp, 12
	jmp	.L56
.L51:
	mov	eax, DWORD PTR [ebp-28]
	mov	edx, DWORD PTR [ebp-20]
	mov	DWORD PTR [eax], edx
.L56:
	test	bl, bl
	nop
	mov	eax, DWORD PTR [ebp-28]
	mov	ecx, DWORD PTR [ebp-12]
	xor	ecx, DWORD PTR gs:20
	je	.L55
	call	__stack_chk_fail
.L55:
	mov	ebx, DWORD PTR [ebp-4]
	leave
	ret	4
	.size	_ZNSt8_Rb_treeISt4pairIiiES1_St9_IdentityIS1_ESt4lessIS1_ESaIS1_EE4findERKS1_, .-_ZNSt8_Rb_treeISt4pairIiiES1_St9_IdentityIS1_ESt4lessIS1_ESaIS1_EE4findERKS1_
	.section	.text._ZNSt23_Rb_tree_const_iteratorISt4pairIiiEEC2ERKSt17_Rb_tree_iteratorIS1_E,"axG",@progbits,_ZNSt23_Rb_tree_const_iteratorISt4pairIiiEEC5ERKSt17_Rb_tree_iteratorIS1_E,comdat
	.align 2
	.weak	_ZNSt23_Rb_tree_const_iteratorISt4pairIiiEEC2ERKSt17_Rb_tree_iteratorIS1_E
	.type	_ZNSt23_Rb_tree_const_iteratorISt4pairIiiEEC2ERKSt17_Rb_tree_iteratorIS1_E, @function
_ZNSt23_Rb_tree_const_iteratorISt4pairIiiEEC2ERKSt17_Rb_tree_iteratorIS1_E:
	push	ebp
	mov	ebp, esp
	mov	eax, DWORD PTR [ebp+12]
	mov	edx, DWORD PTR [eax]
	mov	eax, DWORD PTR [ebp+8]
	mov	DWORD PTR [eax], edx
	nop
	pop	ebp
	ret
	.size	_ZNSt23_Rb_tree_const_iteratorISt4pairIiiEEC2ERKSt17_Rb_tree_iteratorIS1_E, .-_ZNSt23_Rb_tree_const_iteratorISt4pairIiiEEC2ERKSt17_Rb_tree_iteratorIS1_E
	.weak	_ZNSt23_Rb_tree_const_iteratorISt4pairIiiEEC1ERKSt17_Rb_tree_iteratorIS1_E
	.set	_ZNSt23_Rb_tree_const_iteratorISt4pairIiiEEC1ERKSt17_Rb_tree_iteratorIS1_E,_ZNSt23_Rb_tree_const_iteratorISt4pairIiiEEC2ERKSt17_Rb_tree_iteratorIS1_E
	.section	.text._ZNKSt8_Rb_treeISt4pairIiiES1_St9_IdentityIS1_ESt4lessIS1_ESaIS1_EE3endEv,"axG",@progbits,_ZNKSt8_Rb_treeISt4pairIiiES1_St9_IdentityIS1_ESt4lessIS1_ESaIS1_EE3endEv,comdat
	.align 2
	.weak	_ZNKSt8_Rb_treeISt4pairIiiES1_St9_IdentityIS1_ESt4lessIS1_ESaIS1_EE3endEv
	.type	_ZNKSt8_Rb_treeISt4pairIiiES1_St9_IdentityIS1_ESt4lessIS1_ESaIS1_EE3endEv, @function
_ZNKSt8_Rb_treeISt4pairIiiES1_St9_IdentityIS1_ESt4lessIS1_ESaIS1_EE3endEv:
	push	ebp
	mov	ebp, esp
	sub	esp, 8
	mov	eax, DWORD PTR [ebp+12]
	add	eax, 4
	sub	esp, 8
	push	eax
	push	DWORD PTR [ebp+8]
	call	_ZNSt23_Rb_tree_const_iteratorISt4pairIiiEEC1EPKSt18_Rb_tree_node_base
	add	esp, 16
	mov	eax, DWORD PTR [ebp+8]
	leave
	ret	4
	.size	_ZNKSt8_Rb_treeISt4pairIiiES1_St9_IdentityIS1_ESt4lessIS1_ESaIS1_EE3endEv, .-_ZNKSt8_Rb_treeISt4pairIiiES1_St9_IdentityIS1_ESt4lessIS1_ESaIS1_EE3endEv
	.section	.text._ZNSt8_Rb_treeISt4pairIiiES1_St9_IdentityIS1_ESt4lessIS1_ESaIS1_EE16_M_insert_uniqueERKS1_,"axG",@progbits,_ZNSt8_Rb_treeISt4pairIiiES1_St9_IdentityIS1_ESt4lessIS1_ESaIS1_EE16_M_insert_uniqueERKS1_,comdat
	.align 2
	.weak	_ZNSt8_Rb_treeISt4pairIiiES1_St9_IdentityIS1_ESt4lessIS1_ESaIS1_EE16_M_insert_uniqueERKS1_
	.type	_ZNSt8_Rb_treeISt4pairIiiES1_St9_IdentityIS1_ESt4lessIS1_ESaIS1_EE16_M_insert_uniqueERKS1_, @function
_ZNSt8_Rb_treeISt4pairIiiES1_St9_IdentityIS1_ESt4lessIS1_ESaIS1_EE16_M_insert_uniqueERKS1_:
	push	ebp
	mov	ebp, esp
	push	ebx
	sub	esp, 52
	mov	eax, DWORD PTR [ebp+8]
	mov	DWORD PTR [ebp-44], eax
	mov	eax, DWORD PTR [ebp+12]
	mov	DWORD PTR [ebp-48], eax
	mov	eax, DWORD PTR [ebp+16]
	mov	DWORD PTR [ebp-52], eax
	mov	eax, DWORD PTR gs:20
	mov	DWORD PTR [ebp-12], eax
	xor	eax, eax
	sub	esp, 8
	push	DWORD PTR [ebp-52]
	lea	eax, [ebp-24]
	push	eax
	call	_ZNKSt9_IdentityISt4pairIiiEEclERKS1_
	add	esp, 16
	mov	edx, eax
	lea	eax, [ebp-20]
	sub	esp, 4
	push	edx
	push	DWORD PTR [ebp-48]
	push	eax
	call	_ZNSt8_Rb_treeISt4pairIiiES1_St9_IdentityIS1_ESt4lessIS1_ESaIS1_EE24_M_get_insert_unique_posERKS1_
	add	esp, 12
	mov	eax, DWORD PTR [ebp-16]
	test	eax, eax
	je	.L61
	sub	esp, 8
	push	DWORD PTR [ebp-48]
	lea	eax, [ebp-28]
	push	eax
	call	_ZNSt8_Rb_treeISt4pairIiiES1_St9_IdentityIS1_ESt4lessIS1_ESaIS1_EE11_Alloc_nodeC1ERS7_
	add	esp, 16
	mov	BYTE PTR [ebp-29], 1
	mov	ecx, DWORD PTR [ebp-16]
	mov	edx, DWORD PTR [ebp-20]
	lea	eax, [ebp-24]
	sub	esp, 8
	lea	ebx, [ebp-28]
	push	ebx
	push	DWORD PTR [ebp-52]
	push	ecx
	push	edx
	push	DWORD PTR [ebp-48]
	push	eax
	call	_ZNSt8_Rb_treeISt4pairIiiES1_St9_IdentityIS1_ESt4lessIS1_ESaIS1_EE10_M_insert_INS7_11_Alloc_nodeEEESt17_Rb_tree_iteratorIS1_EPSt18_Rb_tree_node_baseSD_RKS1_RT_
	add	esp, 28
	sub	esp, 4
	lea	eax, [ebp-29]
	push	eax
	lea	eax, [ebp-24]
	push	eax
	push	DWORD PTR [ebp-44]
	call	_ZNSt4pairISt17_Rb_tree_iteratorIS_IiiEEbEC1ERKS2_RKb
	add	esp, 16
	jmp	.L60
.L61:
	mov	BYTE PTR [ebp-28], 0
	mov	eax, DWORD PTR [ebp-20]
	sub	esp, 8
	push	eax
	lea	eax, [ebp-24]
	push	eax
	call	_ZNSt17_Rb_tree_iteratorISt4pairIiiEEC1EPSt18_Rb_tree_node_base
	add	esp, 16
	sub	esp, 4
	lea	eax, [ebp-28]
	push	eax
	lea	eax, [ebp-24]
	push	eax
	push	DWORD PTR [ebp-44]
	call	_ZNSt4pairISt17_Rb_tree_iteratorIS_IiiEEbEC1ERKS2_RKb
	add	esp, 16
.L60:
	mov	eax, DWORD PTR [ebp-44]
	mov	ecx, DWORD PTR [ebp-12]
	xor	ecx, DWORD PTR gs:20
	je	.L64
	call	__stack_chk_fail
.L64:
	mov	ebx, DWORD PTR [ebp-4]
	leave
	ret	4
	.size	_ZNSt8_Rb_treeISt4pairIiiES1_St9_IdentityIS1_ESt4lessIS1_ESaIS1_EE16_M_insert_uniqueERKS1_, .-_ZNSt8_Rb_treeISt4pairIiiES1_St9_IdentityIS1_ESt4lessIS1_ESaIS1_EE16_M_insert_uniqueERKS1_
	.section	.text._ZNSt4pairISt23_Rb_tree_const_iteratorIS_IiiEEbEC2ERKS2_RKb,"axG",@progbits,_ZNSt4pairISt23_Rb_tree_const_iteratorIS_IiiEEbEC5ERKS2_RKb,comdat
	.align 2
	.weak	_ZNSt4pairISt23_Rb_tree_const_iteratorIS_IiiEEbEC2ERKS2_RKb
	.type	_ZNSt4pairISt23_Rb_tree_const_iteratorIS_IiiEEbEC2ERKS2_RKb, @function
_ZNSt4pairISt23_Rb_tree_const_iteratorIS_IiiEEbEC2ERKS2_RKb:
	push	ebp
	mov	ebp, esp
	mov	eax, DWORD PTR [ebp+8]
	mov	edx, DWORD PTR [ebp+12]
	mov	edx, DWORD PTR [edx]
	mov	DWORD PTR [eax], edx
	mov	eax, DWORD PTR [ebp+16]
	mov	dl, BYTE PTR [eax]
	mov	eax, DWORD PTR [ebp+8]
	mov	BYTE PTR [eax+4], dl
	nop
	pop	ebp
	ret
	.size	_ZNSt4pairISt23_Rb_tree_const_iteratorIS_IiiEEbEC2ERKS2_RKb, .-_ZNSt4pairISt23_Rb_tree_const_iteratorIS_IiiEEbEC2ERKS2_RKb
	.weak	_ZNSt4pairISt23_Rb_tree_const_iteratorIS_IiiEEbEC1ERKS2_RKb
	.set	_ZNSt4pairISt23_Rb_tree_const_iteratorIS_IiiEEbEC1ERKS2_RKb,_ZNSt4pairISt23_Rb_tree_const_iteratorIS_IiiEEbEC2ERKS2_RKb
	.section	.text._ZNSt8_Rb_treeISt4pairIiiES1_St9_IdentityIS1_ESt4lessIS1_ESaIS1_EE13_Rb_tree_implIS5_Lb0EEC2Ev,"axG",@progbits,_ZNSt8_Rb_treeISt4pairIiiES1_St9_IdentityIS1_ESt4lessIS1_ESaIS1_EE13_Rb_tree_implIS5_Lb0EEC5Ev,comdat
	.align 2
	.weak	_ZNSt8_Rb_treeISt4pairIiiES1_St9_IdentityIS1_ESt4lessIS1_ESaIS1_EE13_Rb_tree_implIS5_Lb0EEC2Ev
	.type	_ZNSt8_Rb_treeISt4pairIiiES1_St9_IdentityIS1_ESt4lessIS1_ESaIS1_EE13_Rb_tree_implIS5_Lb0EEC2Ev, @function
_ZNSt8_Rb_treeISt4pairIiiES1_St9_IdentityIS1_ESt4lessIS1_ESaIS1_EE13_Rb_tree_implIS5_Lb0EEC2Ev:
	push	ebp
	mov	ebp, esp
	push	edi
	push	ebx
	sub	esp, 12
	push	DWORD PTR [ebp+8]
	call	_ZNSaISt13_Rb_tree_nodeISt4pairIiiEEEC2Ev
	add	esp, 16
	mov	eax, DWORD PTR [ebp+8]
	lea	ebx, [eax+4]
	mov	edx, 4
	mov	eax, 0
	mov	edi, ebx
	mov	ecx, edx
	rep stosd
	mov	eax, DWORD PTR [ebp+8]
	mov	DWORD PTR [eax+20], 0
	sub	esp, 12
	push	DWORD PTR [ebp+8]
	call	_ZNSt8_Rb_treeISt4pairIiiES1_St9_IdentityIS1_ESt4lessIS1_ESaIS1_EE13_Rb_tree_implIS5_Lb0EE13_M_initializeEv
	add	esp, 16
	nop
	lea	esp, [ebp-8]
	pop	ebx
	pop	edi
	pop	ebp
	ret
	.size	_ZNSt8_Rb_treeISt4pairIiiES1_St9_IdentityIS1_ESt4lessIS1_ESaIS1_EE13_Rb_tree_implIS5_Lb0EEC2Ev, .-_ZNSt8_Rb_treeISt4pairIiiES1_St9_IdentityIS1_ESt4lessIS1_ESaIS1_EE13_Rb_tree_implIS5_Lb0EEC2Ev
	.weak	_ZNSt8_Rb_treeISt4pairIiiES1_St9_IdentityIS1_ESt4lessIS1_ESaIS1_EE13_Rb_tree_implIS5_Lb0EEC1Ev
	.set	_ZNSt8_Rb_treeISt4pairIiiES1_St9_IdentityIS1_ESt4lessIS1_ESaIS1_EE13_Rb_tree_implIS5_Lb0EEC1Ev,_ZNSt8_Rb_treeISt4pairIiiES1_St9_IdentityIS1_ESt4lessIS1_ESaIS1_EE13_Rb_tree_implIS5_Lb0EEC2Ev
	.section	.text._ZN9__gnu_cxx13new_allocatorISt13_Rb_tree_nodeISt4pairIiiEEED2Ev,"axG",@progbits,_ZN9__gnu_cxx13new_allocatorISt13_Rb_tree_nodeISt4pairIiiEEED5Ev,comdat
	.align 2
	.weak	_ZN9__gnu_cxx13new_allocatorISt13_Rb_tree_nodeISt4pairIiiEEED2Ev
	.type	_ZN9__gnu_cxx13new_allocatorISt13_Rb_tree_nodeISt4pairIiiEEED2Ev, @function
_ZN9__gnu_cxx13new_allocatorISt13_Rb_tree_nodeISt4pairIiiEEED2Ev:
	push	ebp
	mov	ebp, esp
	nop
	pop	ebp
	ret
	.size	_ZN9__gnu_cxx13new_allocatorISt13_Rb_tree_nodeISt4pairIiiEEED2Ev, .-_ZN9__gnu_cxx13new_allocatorISt13_Rb_tree_nodeISt4pairIiiEEED2Ev
	.weak	_ZN9__gnu_cxx13new_allocatorISt13_Rb_tree_nodeISt4pairIiiEEED1Ev
	.set	_ZN9__gnu_cxx13new_allocatorISt13_Rb_tree_nodeISt4pairIiiEEED1Ev,_ZN9__gnu_cxx13new_allocatorISt13_Rb_tree_nodeISt4pairIiiEEED2Ev
	.section	.text._ZNSt8_Rb_treeISt4pairIiiES1_St9_IdentityIS1_ESt4lessIS1_ESaIS1_EE8_S_rightEPSt18_Rb_tree_node_base,"axG",@progbits,_ZNSt8_Rb_treeISt4pairIiiES1_St9_IdentityIS1_ESt4lessIS1_ESaIS1_EE8_S_rightEPSt18_Rb_tree_node_base,comdat
	.weak	_ZNSt8_Rb_treeISt4pairIiiES1_St9_IdentityIS1_ESt4lessIS1_ESaIS1_EE8_S_rightEPSt18_Rb_tree_node_base
	.type	_ZNSt8_Rb_treeISt4pairIiiES1_St9_IdentityIS1_ESt4lessIS1_ESaIS1_EE8_S_rightEPSt18_Rb_tree_node_base, @function
_ZNSt8_Rb_treeISt4pairIiiES1_St9_IdentityIS1_ESt4lessIS1_ESaIS1_EE8_S_rightEPSt18_Rb_tree_node_base:
	push	ebp
	mov	ebp, esp
	mov	eax, DWORD PTR [ebp+8]
	mov	eax, DWORD PTR [eax+12]
	pop	ebp
	ret
	.size	_ZNSt8_Rb_treeISt4pairIiiES1_St9_IdentityIS1_ESt4lessIS1_ESaIS1_EE8_S_rightEPSt18_Rb_tree_node_base, .-_ZNSt8_Rb_treeISt4pairIiiES1_St9_IdentityIS1_ESt4lessIS1_ESaIS1_EE8_S_rightEPSt18_Rb_tree_node_base
	.section	.text._ZNSt8_Rb_treeISt4pairIiiES1_St9_IdentityIS1_ESt4lessIS1_ESaIS1_EE7_S_leftEPSt18_Rb_tree_node_base,"axG",@progbits,_ZNSt8_Rb_treeISt4pairIiiES1_St9_IdentityIS1_ESt4lessIS1_ESaIS1_EE7_S_leftEPSt18_Rb_tree_node_base,comdat
	.weak	_ZNSt8_Rb_treeISt4pairIiiES1_St9_IdentityIS1_ESt4lessIS1_ESaIS1_EE7_S_leftEPSt18_Rb_tree_node_base
	.type	_ZNSt8_Rb_treeISt4pairIiiES1_St9_IdentityIS1_ESt4lessIS1_ESaIS1_EE7_S_leftEPSt18_Rb_tree_node_base, @function
_ZNSt8_Rb_treeISt4pairIiiES1_St9_IdentityIS1_ESt4lessIS1_ESaIS1_EE7_S_leftEPSt18_Rb_tree_node_base:
	push	ebp
	mov	ebp, esp
	mov	eax, DWORD PTR [ebp+8]
	mov	eax, DWORD PTR [eax+8]
	pop	ebp
	ret
	.size	_ZNSt8_Rb_treeISt4pairIiiES1_St9_IdentityIS1_ESt4lessIS1_ESaIS1_EE7_S_leftEPSt18_Rb_tree_node_base, .-_ZNSt8_Rb_treeISt4pairIiiES1_St9_IdentityIS1_ESt4lessIS1_ESaIS1_EE7_S_leftEPSt18_Rb_tree_node_base
	.section	.text._ZNSt8_Rb_treeISt4pairIiiES1_St9_IdentityIS1_ESt4lessIS1_ESaIS1_EE12_M_drop_nodeEPSt13_Rb_tree_nodeIS1_E,"axG",@progbits,_ZNSt8_Rb_treeISt4pairIiiES1_St9_IdentityIS1_ESt4lessIS1_ESaIS1_EE12_M_drop_nodeEPSt13_Rb_tree_nodeIS1_E,comdat
	.align 2
	.weak	_ZNSt8_Rb_treeISt4pairIiiES1_St9_IdentityIS1_ESt4lessIS1_ESaIS1_EE12_M_drop_nodeEPSt13_Rb_tree_nodeIS1_E
	.type	_ZNSt8_Rb_treeISt4pairIiiES1_St9_IdentityIS1_ESt4lessIS1_ESaIS1_EE12_M_drop_nodeEPSt13_Rb_tree_nodeIS1_E, @function
_ZNSt8_Rb_treeISt4pairIiiES1_St9_IdentityIS1_ESt4lessIS1_ESaIS1_EE12_M_drop_nodeEPSt13_Rb_tree_nodeIS1_E:
	push	ebp
	mov	ebp, esp
	sub	esp, 8
	sub	esp, 8
	push	DWORD PTR [ebp+12]
	push	DWORD PTR [ebp+8]
	call	_ZNSt8_Rb_treeISt4pairIiiES1_St9_IdentityIS1_ESt4lessIS1_ESaIS1_EE15_M_destroy_nodeEPSt13_Rb_tree_nodeIS1_E
	add	esp, 16
	sub	esp, 8
	push	DWORD PTR [ebp+12]
	push	DWORD PTR [ebp+8]
	call	_ZNSt8_Rb_treeISt4pairIiiES1_St9_IdentityIS1_ESt4lessIS1_ESaIS1_EE11_M_put_nodeEPSt13_Rb_tree_nodeIS1_E
	add	esp, 16
	nop
	leave
	ret
	.size	_ZNSt8_Rb_treeISt4pairIiiES1_St9_IdentityIS1_ESt4lessIS1_ESaIS1_EE12_M_drop_nodeEPSt13_Rb_tree_nodeIS1_E, .-_ZNSt8_Rb_treeISt4pairIiiES1_St9_IdentityIS1_ESt4lessIS1_ESaIS1_EE12_M_drop_nodeEPSt13_Rb_tree_nodeIS1_E
	.section	.text._ZNSt8_Rb_treeISt4pairIiiES1_St9_IdentityIS1_ESt4lessIS1_ESaIS1_EE6_M_endEv,"axG",@progbits,_ZNSt8_Rb_treeISt4pairIiiES1_St9_IdentityIS1_ESt4lessIS1_ESaIS1_EE6_M_endEv,comdat
	.align 2
	.weak	_ZNSt8_Rb_treeISt4pairIiiES1_St9_IdentityIS1_ESt4lessIS1_ESaIS1_EE6_M_endEv
	.type	_ZNSt8_Rb_treeISt4pairIiiES1_St9_IdentityIS1_ESt4lessIS1_ESaIS1_EE6_M_endEv, @function
_ZNSt8_Rb_treeISt4pairIiiES1_St9_IdentityIS1_ESt4lessIS1_ESaIS1_EE6_M_endEv:
	push	ebp
	mov	ebp, esp
	mov	eax, DWORD PTR [ebp+8]
	add	eax, 4
	pop	ebp
	ret
	.size	_ZNSt8_Rb_treeISt4pairIiiES1_St9_IdentityIS1_ESt4lessIS1_ESaIS1_EE6_M_endEv, .-_ZNSt8_Rb_treeISt4pairIiiES1_St9_IdentityIS1_ESt4lessIS1_ESaIS1_EE6_M_endEv
	.section	.text._ZNSt8_Rb_treeISt4pairIiiES1_St9_IdentityIS1_ESt4lessIS1_ESaIS1_EE14_M_lower_boundEPSt13_Rb_tree_nodeIS1_ESA_RKS1_,"axG",@progbits,_ZNSt8_Rb_treeISt4pairIiiES1_St9_IdentityIS1_ESt4lessIS1_ESaIS1_EE14_M_lower_boundEPSt13_Rb_tree_nodeIS1_ESA_RKS1_,comdat
	.align 2
	.weak	_ZNSt8_Rb_treeISt4pairIiiES1_St9_IdentityIS1_ESt4lessIS1_ESaIS1_EE14_M_lower_boundEPSt13_Rb_tree_nodeIS1_ESA_RKS1_
	.type	_ZNSt8_Rb_treeISt4pairIiiES1_St9_IdentityIS1_ESt4lessIS1_ESaIS1_EE14_M_lower_boundEPSt13_Rb_tree_nodeIS1_ESA_RKS1_, @function
_ZNSt8_Rb_treeISt4pairIiiES1_St9_IdentityIS1_ESt4lessIS1_ESaIS1_EE14_M_lower_boundEPSt13_Rb_tree_nodeIS1_ESA_RKS1_:
	push	ebp
	mov	ebp, esp
	sub	esp, 8
.L79:
	cmp	DWORD PTR [ebp+16], 0
	je	.L76
	sub	esp, 12
	push	DWORD PTR [ebp+16]
	call	_ZNSt8_Rb_treeISt4pairIiiES1_St9_IdentityIS1_ESt4lessIS1_ESaIS1_EE6_S_keyEPKSt13_Rb_tree_nodeIS1_E
	add	esp, 16
	mov	edx, eax
	mov	eax, DWORD PTR [ebp+12]
	sub	esp, 4
	push	DWORD PTR [ebp+24]
	push	edx
	push	eax
	call	_ZNKSt4lessISt4pairIiiEEclERKS1_S4_
	add	esp, 16
	xor	eax, 1
	test	al, al
	je	.L77
	mov	eax, DWORD PTR [ebp+16]
	mov	DWORD PTR [ebp+20], eax
	sub	esp, 12
	push	DWORD PTR [ebp+16]
	call	_ZNSt8_Rb_treeISt4pairIiiES1_St9_IdentityIS1_ESt4lessIS1_ESaIS1_EE7_S_leftEPSt18_Rb_tree_node_base
	add	esp, 16
	mov	DWORD PTR [ebp+16], eax
	jmp	.L79
.L77:
	sub	esp, 12
	push	DWORD PTR [ebp+16]
	call	_ZNSt8_Rb_treeISt4pairIiiES1_St9_IdentityIS1_ESt4lessIS1_ESaIS1_EE8_S_rightEPSt18_Rb_tree_node_base
	add	esp, 16
	mov	DWORD PTR [ebp+16], eax
	jmp	.L79
.L76:
	sub	esp, 8
	push	DWORD PTR [ebp+20]
	push	DWORD PTR [ebp+8]
	call	_ZNSt17_Rb_tree_iteratorISt4pairIiiEEC1EPSt18_Rb_tree_node_base
	add	esp, 16
	mov	eax, DWORD PTR [ebp+8]
	leave
	ret	4
	.size	_ZNSt8_Rb_treeISt4pairIiiES1_St9_IdentityIS1_ESt4lessIS1_ESaIS1_EE14_M_lower_boundEPSt13_Rb_tree_nodeIS1_ESA_RKS1_, .-_ZNSt8_Rb_treeISt4pairIiiES1_St9_IdentityIS1_ESt4lessIS1_ESaIS1_EE14_M_lower_boundEPSt13_Rb_tree_nodeIS1_ESA_RKS1_
	.section	.text._ZNSt8_Rb_treeISt4pairIiiES1_St9_IdentityIS1_ESt4lessIS1_ESaIS1_EE3endEv,"axG",@progbits,_ZNSt8_Rb_treeISt4pairIiiES1_St9_IdentityIS1_ESt4lessIS1_ESaIS1_EE3endEv,comdat
	.align 2
	.weak	_ZNSt8_Rb_treeISt4pairIiiES1_St9_IdentityIS1_ESt4lessIS1_ESaIS1_EE3endEv
	.type	_ZNSt8_Rb_treeISt4pairIiiES1_St9_IdentityIS1_ESt4lessIS1_ESaIS1_EE3endEv, @function
_ZNSt8_Rb_treeISt4pairIiiES1_St9_IdentityIS1_ESt4lessIS1_ESaIS1_EE3endEv:
	push	ebp
	mov	ebp, esp
	sub	esp, 8
	mov	eax, DWORD PTR [ebp+12]
	add	eax, 4
	sub	esp, 8
	push	eax
	push	DWORD PTR [ebp+8]
	call	_ZNSt17_Rb_tree_iteratorISt4pairIiiEEC1EPSt18_Rb_tree_node_base
	add	esp, 16
	mov	eax, DWORD PTR [ebp+8]
	leave
	ret	4
	.size	_ZNSt8_Rb_treeISt4pairIiiES1_St9_IdentityIS1_ESt4lessIS1_ESaIS1_EE3endEv, .-_ZNSt8_Rb_treeISt4pairIiiES1_St9_IdentityIS1_ESt4lessIS1_ESaIS1_EE3endEv
	.section	.text._ZNKSt17_Rb_tree_iteratorISt4pairIiiEEeqERKS2_,"axG",@progbits,_ZNKSt17_Rb_tree_iteratorISt4pairIiiEEeqERKS2_,comdat
	.align 2
	.weak	_ZNKSt17_Rb_tree_iteratorISt4pairIiiEEeqERKS2_
	.type	_ZNKSt17_Rb_tree_iteratorISt4pairIiiEEeqERKS2_, @function
_ZNKSt17_Rb_tree_iteratorISt4pairIiiEEeqERKS2_:
	push	ebp
	mov	ebp, esp
	mov	eax, DWORD PTR [ebp+8]
	mov	edx, DWORD PTR [eax]
	mov	eax, DWORD PTR [ebp+12]
	mov	eax, DWORD PTR [eax]
	cmp	edx, eax
	sete	al
	pop	ebp
	ret
	.size	_ZNKSt17_Rb_tree_iteratorISt4pairIiiEEeqERKS2_, .-_ZNKSt17_Rb_tree_iteratorISt4pairIiiEEeqERKS2_
	.section	.text._ZNSt8_Rb_treeISt4pairIiiES1_St9_IdentityIS1_ESt4lessIS1_ESaIS1_EE6_S_keyEPKSt18_Rb_tree_node_base,"axG",@progbits,_ZNSt8_Rb_treeISt4pairIiiES1_St9_IdentityIS1_ESt4lessIS1_ESaIS1_EE6_S_keyEPKSt18_Rb_tree_node_base,comdat
	.weak	_ZNSt8_Rb_treeISt4pairIiiES1_St9_IdentityIS1_ESt4lessIS1_ESaIS1_EE6_S_keyEPKSt18_Rb_tree_node_base
	.type	_ZNSt8_Rb_treeISt4pairIiiES1_St9_IdentityIS1_ESt4lessIS1_ESaIS1_EE6_S_keyEPKSt18_Rb_tree_node_base, @function
_ZNSt8_Rb_treeISt4pairIiiES1_St9_IdentityIS1_ESt4lessIS1_ESaIS1_EE6_S_keyEPKSt18_Rb_tree_node_base:
	push	ebp
	mov	ebp, esp
	sub	esp, 40
	mov	eax, DWORD PTR [ebp+8]
	mov	DWORD PTR [ebp-28], eax
	mov	eax, DWORD PTR gs:20
	mov	DWORD PTR [ebp-12], eax
	xor	eax, eax
	sub	esp, 12
	push	DWORD PTR [ebp-28]
	call	_ZNSt8_Rb_treeISt4pairIiiES1_St9_IdentityIS1_ESt4lessIS1_ESaIS1_EE8_S_valueEPKSt18_Rb_tree_node_base
	add	esp, 16
	sub	esp, 8
	push	eax
	lea	eax, [ebp-13]
	push	eax
	call	_ZNKSt9_IdentityISt4pairIiiEEclERKS1_
	add	esp, 16
	mov	edx, DWORD PTR [ebp-12]
	xor	edx, DWORD PTR gs:20
	je	.L87
	call	__stack_chk_fail
.L87:
	leave
	ret
	.size	_ZNSt8_Rb_treeISt4pairIiiES1_St9_IdentityIS1_ESt4lessIS1_ESaIS1_EE6_S_keyEPKSt18_Rb_tree_node_base, .-_ZNSt8_Rb_treeISt4pairIiiES1_St9_IdentityIS1_ESt4lessIS1_ESaIS1_EE6_S_keyEPKSt18_Rb_tree_node_base
	.section	.text._ZNKSt4lessISt4pairIiiEEclERKS1_S4_,"axG",@progbits,_ZNKSt4lessISt4pairIiiEEclERKS1_S4_,comdat
	.align 2
	.weak	_ZNKSt4lessISt4pairIiiEEclERKS1_S4_
	.type	_ZNKSt4lessISt4pairIiiEEclERKS1_S4_, @function
_ZNKSt4lessISt4pairIiiEEclERKS1_S4_:
	push	ebp
	mov	ebp, esp
	sub	esp, 8
	sub	esp, 8
	push	DWORD PTR [ebp+16]
	push	DWORD PTR [ebp+12]
	call	_ZStltIiiEbRKSt4pairIT_T0_ES5_
	add	esp, 16
	leave
	ret
	.size	_ZNKSt4lessISt4pairIiiEEclERKS1_S4_, .-_ZNKSt4lessISt4pairIiiEEclERKS1_S4_
	.section	.text._ZNSt23_Rb_tree_const_iteratorISt4pairIiiEEC2EPKSt18_Rb_tree_node_base,"axG",@progbits,_ZNSt23_Rb_tree_const_iteratorISt4pairIiiEEC5EPKSt18_Rb_tree_node_base,comdat
	.align 2
	.weak	_ZNSt23_Rb_tree_const_iteratorISt4pairIiiEEC2EPKSt18_Rb_tree_node_base
	.type	_ZNSt23_Rb_tree_const_iteratorISt4pairIiiEEC2EPKSt18_Rb_tree_node_base, @function
_ZNSt23_Rb_tree_const_iteratorISt4pairIiiEEC2EPKSt18_Rb_tree_node_base:
	push	ebp
	mov	ebp, esp
	mov	eax, DWORD PTR [ebp+8]
	mov	edx, DWORD PTR [ebp+12]
	mov	DWORD PTR [eax], edx
	nop
	pop	ebp
	ret
	.size	_ZNSt23_Rb_tree_const_iteratorISt4pairIiiEEC2EPKSt18_Rb_tree_node_base, .-_ZNSt23_Rb_tree_const_iteratorISt4pairIiiEEC2EPKSt18_Rb_tree_node_base
	.weak	_ZNSt23_Rb_tree_const_iteratorISt4pairIiiEEC1EPKSt18_Rb_tree_node_base
	.set	_ZNSt23_Rb_tree_const_iteratorISt4pairIiiEEC1EPKSt18_Rb_tree_node_base,_ZNSt23_Rb_tree_const_iteratorISt4pairIiiEEC2EPKSt18_Rb_tree_node_base
	.section	.text._ZNSt8_Rb_treeISt4pairIiiES1_St9_IdentityIS1_ESt4lessIS1_ESaIS1_EE24_M_get_insert_unique_posERKS1_,"axG",@progbits,_ZNSt8_Rb_treeISt4pairIiiES1_St9_IdentityIS1_ESt4lessIS1_ESaIS1_EE24_M_get_insert_unique_posERKS1_,comdat
	.align 2
	.weak	_ZNSt8_Rb_treeISt4pairIiiES1_St9_IdentityIS1_ESt4lessIS1_ESaIS1_EE24_M_get_insert_unique_posERKS1_
	.type	_ZNSt8_Rb_treeISt4pairIiiES1_St9_IdentityIS1_ESt4lessIS1_ESaIS1_EE24_M_get_insert_unique_posERKS1_, @function
_ZNSt8_Rb_treeISt4pairIiiES1_St9_IdentityIS1_ESt4lessIS1_ESaIS1_EE24_M_get_insert_unique_posERKS1_:
	push	ebp
	mov	ebp, esp
	sub	esp, 56
	mov	eax, DWORD PTR [ebp+8]
	mov	DWORD PTR [ebp-44], eax
	mov	eax, DWORD PTR [ebp+12]
	mov	DWORD PTR [ebp-48], eax
	mov	eax, DWORD PTR [ebp+16]
	mov	DWORD PTR [ebp-52], eax
	mov	eax, DWORD PTR gs:20
	mov	DWORD PTR [ebp-12], eax
	xor	eax, eax
	sub	esp, 12
	push	DWORD PTR [ebp-48]
	call	_ZNSt8_Rb_treeISt4pairIiiES1_St9_IdentityIS1_ESt4lessIS1_ESaIS1_EE8_M_beginEv
	add	esp, 16
	mov	DWORD PTR [ebp-20], eax
	sub	esp, 12
	push	DWORD PTR [ebp-48]
	call	_ZNSt8_Rb_treeISt4pairIiiES1_St9_IdentityIS1_ESt4lessIS1_ESaIS1_EE6_M_endEv
	add	esp, 16
	mov	DWORD PTR [ebp-16], eax
	mov	BYTE PTR [ebp-33], 1
.L95:
	cmp	DWORD PTR [ebp-20], 0
	je	.L92
	mov	eax, DWORD PTR [ebp-20]
	mov	DWORD PTR [ebp-16], eax
	sub	esp, 12
	push	DWORD PTR [ebp-20]
	call	_ZNSt8_Rb_treeISt4pairIiiES1_St9_IdentityIS1_ESt4lessIS1_ESaIS1_EE6_S_keyEPKSt13_Rb_tree_nodeIS1_E
	add	esp, 16
	mov	edx, eax
	mov	eax, DWORD PTR [ebp-48]
	sub	esp, 4
	push	edx
	push	DWORD PTR [ebp-52]
	push	eax
	call	_ZNKSt4lessISt4pairIiiEEclERKS1_S4_
	add	esp, 16
	mov	BYTE PTR [ebp-33], al
	cmp	BYTE PTR [ebp-33], 0
	je	.L93
	sub	esp, 12
	push	DWORD PTR [ebp-20]
	call	_ZNSt8_Rb_treeISt4pairIiiES1_St9_IdentityIS1_ESt4lessIS1_ESaIS1_EE7_S_leftEPSt18_Rb_tree_node_base
	add	esp, 16
	jmp	.L94
.L93:
	sub	esp, 12
	push	DWORD PTR [ebp-20]
	call	_ZNSt8_Rb_treeISt4pairIiiES1_St9_IdentityIS1_ESt4lessIS1_ESaIS1_EE8_S_rightEPSt18_Rb_tree_node_base
	add	esp, 16
.L94:
	mov	DWORD PTR [ebp-20], eax
	jmp	.L95
.L92:
	sub	esp, 8
	push	DWORD PTR [ebp-16]
	lea	eax, [ebp-32]
	push	eax
	call	_ZNSt17_Rb_tree_iteratorISt4pairIiiEEC1EPSt18_Rb_tree_node_base
	add	esp, 16
	cmp	BYTE PTR [ebp-33], 0
	je	.L96
	lea	eax, [ebp-24]
	sub	esp, 8
	push	DWORD PTR [ebp-48]
	push	eax
	call	_ZNSt8_Rb_treeISt4pairIiiES1_St9_IdentityIS1_ESt4lessIS1_ESaIS1_EE5beginEv
	add	esp, 12
	sub	esp, 8
	lea	eax, [ebp-24]
	push	eax
	lea	eax, [ebp-32]
	push	eax
	call	_ZNKSt17_Rb_tree_iteratorISt4pairIiiEEeqERKS2_
	add	esp, 16
	test	al, al
	je	.L97
	mov	eax, DWORD PTR [ebp-16]
	mov	DWORD PTR [ebp-24], eax
	mov	eax, DWORD PTR [ebp-20]
	mov	DWORD PTR [ebp-28], eax
	sub	esp, 4
	lea	eax, [ebp-24]
	push	eax
	lea	eax, [ebp-28]
	push	eax
	push	DWORD PTR [ebp-44]
	call	_ZNSt4pairIPSt18_Rb_tree_node_baseS1_EC1ERKS1_S4_
	add	esp, 16
	jmp	.L91
.L97:
	sub	esp, 12
	lea	eax, [ebp-32]
	push	eax
	call	_ZNSt17_Rb_tree_iteratorISt4pairIiiEEmmEv
	add	esp, 16
.L96:
	mov	eax, DWORD PTR [ebp-32]
	sub	esp, 12
	push	eax
	call	_ZNSt8_Rb_treeISt4pairIiiES1_St9_IdentityIS1_ESt4lessIS1_ESaIS1_EE6_S_keyEPKSt18_Rb_tree_node_base
	add	esp, 16
	mov	edx, eax
	mov	eax, DWORD PTR [ebp-48]
	sub	esp, 4
	push	DWORD PTR [ebp-52]
	push	edx
	push	eax
	call	_ZNKSt4lessISt4pairIiiEEclERKS1_S4_
	add	esp, 16
	test	al, al
	je	.L99
	mov	eax, DWORD PTR [ebp-16]
	mov	DWORD PTR [ebp-24], eax
	mov	eax, DWORD PTR [ebp-20]
	mov	DWORD PTR [ebp-28], eax
	sub	esp, 4
	lea	eax, [ebp-24]
	push	eax
	lea	eax, [ebp-28]
	push	eax
	push	DWORD PTR [ebp-44]
	call	_ZNSt4pairIPSt18_Rb_tree_node_baseS1_EC1ERKS1_S4_
	add	esp, 16
	jmp	.L91
.L99:
	mov	DWORD PTR [ebp-24], 0
	sub	esp, 4
	lea	eax, [ebp-24]
	push	eax
	lea	eax, [ebp-32]
	push	eax
	push	DWORD PTR [ebp-44]
	call	_ZNSt4pairIPSt18_Rb_tree_node_baseS1_EC1ERKS1_S4_
	add	esp, 16
.L91:
	mov	eax, DWORD PTR [ebp-44]
	mov	ecx, DWORD PTR [ebp-12]
	xor	ecx, DWORD PTR gs:20
	je	.L101
	call	__stack_chk_fail
.L101:
	leave
	ret	4
	.size	_ZNSt8_Rb_treeISt4pairIiiES1_St9_IdentityIS1_ESt4lessIS1_ESaIS1_EE24_M_get_insert_unique_posERKS1_, .-_ZNSt8_Rb_treeISt4pairIiiES1_St9_IdentityIS1_ESt4lessIS1_ESaIS1_EE24_M_get_insert_unique_posERKS1_
	.section	.text._ZNKSt9_IdentityISt4pairIiiEEclERKS1_,"axG",@progbits,_ZNKSt9_IdentityISt4pairIiiEEclERKS1_,comdat
	.align 2
	.weak	_ZNKSt9_IdentityISt4pairIiiEEclERKS1_
	.type	_ZNKSt9_IdentityISt4pairIiiEEclERKS1_, @function
_ZNKSt9_IdentityISt4pairIiiEEclERKS1_:
	push	ebp
	mov	ebp, esp
	mov	eax, DWORD PTR [ebp+12]
	pop	ebp
	ret
	.size	_ZNKSt9_IdentityISt4pairIiiEEclERKS1_, .-_ZNKSt9_IdentityISt4pairIiiEEclERKS1_
	.section	.text._ZNSt8_Rb_treeISt4pairIiiES1_St9_IdentityIS1_ESt4lessIS1_ESaIS1_EE11_Alloc_nodeC2ERS7_,"axG",@progbits,_ZNSt8_Rb_treeISt4pairIiiES1_St9_IdentityIS1_ESt4lessIS1_ESaIS1_EE11_Alloc_nodeC5ERS7_,comdat
	.align 2
	.weak	_ZNSt8_Rb_treeISt4pairIiiES1_St9_IdentityIS1_ESt4lessIS1_ESaIS1_EE11_Alloc_nodeC2ERS7_
	.type	_ZNSt8_Rb_treeISt4pairIiiES1_St9_IdentityIS1_ESt4lessIS1_ESaIS1_EE11_Alloc_nodeC2ERS7_, @function
_ZNSt8_Rb_treeISt4pairIiiES1_St9_IdentityIS1_ESt4lessIS1_ESaIS1_EE11_Alloc_nodeC2ERS7_:
	push	ebp
	mov	ebp, esp
	mov	eax, DWORD PTR [ebp+8]
	mov	edx, DWORD PTR [ebp+12]
	mov	DWORD PTR [eax], edx
	nop
	pop	ebp
	ret
	.size	_ZNSt8_Rb_treeISt4pairIiiES1_St9_IdentityIS1_ESt4lessIS1_ESaIS1_EE11_Alloc_nodeC2ERS7_, .-_ZNSt8_Rb_treeISt4pairIiiES1_St9_IdentityIS1_ESt4lessIS1_ESaIS1_EE11_Alloc_nodeC2ERS7_
	.weak	_ZNSt8_Rb_treeISt4pairIiiES1_St9_IdentityIS1_ESt4lessIS1_ESaIS1_EE11_Alloc_nodeC1ERS7_
	.set	_ZNSt8_Rb_treeISt4pairIiiES1_St9_IdentityIS1_ESt4lessIS1_ESaIS1_EE11_Alloc_nodeC1ERS7_,_ZNSt8_Rb_treeISt4pairIiiES1_St9_IdentityIS1_ESt4lessIS1_ESaIS1_EE11_Alloc_nodeC2ERS7_
	.section	.text._ZNSt8_Rb_treeISt4pairIiiES1_St9_IdentityIS1_ESt4lessIS1_ESaIS1_EE10_M_insert_INS7_11_Alloc_nodeEEESt17_Rb_tree_iteratorIS1_EPSt18_Rb_tree_node_baseSD_RKS1_RT_,"axG",@progbits,_ZNSt8_Rb_treeISt4pairIiiES1_St9_IdentityIS1_ESt4lessIS1_ESaIS1_EE10_M_insert_INS7_11_Alloc_nodeEEESt17_Rb_tree_iteratorIS1_EPSt18_Rb_tree_node_baseSD_RKS1_RT_,comdat
	.align 2
	.weak	_ZNSt8_Rb_treeISt4pairIiiES1_St9_IdentityIS1_ESt4lessIS1_ESaIS1_EE10_M_insert_INS7_11_Alloc_nodeEEESt17_Rb_tree_iteratorIS1_EPSt18_Rb_tree_node_baseSD_RKS1_RT_
	.type	_ZNSt8_Rb_treeISt4pairIiiES1_St9_IdentityIS1_ESt4lessIS1_ESaIS1_EE10_M_insert_INS7_11_Alloc_nodeEEESt17_Rb_tree_iteratorIS1_EPSt18_Rb_tree_node_baseSD_RKS1_RT_, @function
_ZNSt8_Rb_treeISt4pairIiiES1_St9_IdentityIS1_ESt4lessIS1_ESaIS1_EE10_M_insert_INS7_11_Alloc_nodeEEESt17_Rb_tree_iteratorIS1_EPSt18_Rb_tree_node_baseSD_RKS1_RT_:
	push	ebp
	mov	ebp, esp
	push	esi
	push	ebx
	sub	esp, 48
	mov	eax, DWORD PTR [ebp+8]
	mov	DWORD PTR [ebp-28], eax
	mov	eax, DWORD PTR [ebp+12]
	mov	DWORD PTR [ebp-32], eax
	mov	eax, DWORD PTR [ebp+16]
	mov	DWORD PTR [ebp-36], eax
	mov	eax, DWORD PTR [ebp+20]
	mov	DWORD PTR [ebp-40], eax
	mov	eax, DWORD PTR [ebp+24]
	mov	DWORD PTR [ebp-44], eax
	mov	eax, DWORD PTR [ebp+28]
	mov	DWORD PTR [ebp-48], eax
	mov	eax, DWORD PTR gs:20
	mov	DWORD PTR [ebp-12], eax
	xor	eax, eax
	mov	bl, 0
	cmp	DWORD PTR [ebp-36], 0
	jne	.L106
	sub	esp, 12
	push	DWORD PTR [ebp-32]
	call	_ZNSt8_Rb_treeISt4pairIiiES1_St9_IdentityIS1_ESt4lessIS1_ESaIS1_EE6_M_endEv
	add	esp, 16
	cmp	eax, DWORD PTR [ebp-40]
	je	.L106
	sub	esp, 12
	push	DWORD PTR [ebp-40]
	call	_ZNSt8_Rb_treeISt4pairIiiES1_St9_IdentityIS1_ESt4lessIS1_ESaIS1_EE6_S_keyEPKSt18_Rb_tree_node_base
	add	esp, 16
	mov	esi, eax
	mov	bl, 1
	sub	esp, 8
	push	DWORD PTR [ebp-44]
	lea	eax, [ebp-18]
	push	eax
	call	_ZNKSt9_IdentityISt4pairIiiEEclERKS1_
	add	esp, 16
	mov	edx, eax
	mov	eax, DWORD PTR [ebp-32]
	sub	esp, 4
	push	esi
	push	edx
	push	eax
	call	_ZNKSt4lessISt4pairIiiEEclERKS1_S4_
	add	esp, 16
	test	al, al
	je	.L107
.L106:
	mov	al, 1
	jmp	.L108
.L107:
	mov	al, 0
.L108:
	mov	BYTE PTR [ebp-17], al
	test	bl, bl
	nop
	sub	esp, 8
	push	DWORD PTR [ebp-44]
	push	DWORD PTR [ebp-48]
	call	_ZNKSt8_Rb_treeISt4pairIiiES1_St9_IdentityIS1_ESt4lessIS1_ESaIS1_EE11_Alloc_nodeclIS1_EEPSt13_Rb_tree_nodeIS1_ERKT_
	add	esp, 16
	mov	DWORD PTR [ebp-16], eax
	mov	eax, DWORD PTR [ebp-32]
	lea	edx, [eax+4]
	movzx	eax, BYTE PTR [ebp-17]
	push	edx
	push	DWORD PTR [ebp-40]
	push	DWORD PTR [ebp-16]
	push	eax
	call	_ZSt29_Rb_tree_insert_and_rebalancebPSt18_Rb_tree_node_baseS0_RS_
	add	esp, 16
	mov	eax, DWORD PTR [ebp-32]
	mov	eax, DWORD PTR [eax+20]
	lea	edx, [eax+1]
	mov	eax, DWORD PTR [ebp-32]
	mov	DWORD PTR [eax+20], edx
	sub	esp, 8
	push	DWORD PTR [ebp-16]
	push	DWORD PTR [ebp-28]
	call	_ZNSt17_Rb_tree_iteratorISt4pairIiiEEC1EPSt18_Rb_tree_node_base
	add	esp, 16
	mov	eax, DWORD PTR [ebp-28]
	mov	ecx, DWORD PTR [ebp-12]
	xor	ecx, DWORD PTR gs:20
	je	.L111
	call	__stack_chk_fail
.L111:
	lea	esp, [ebp-8]
	pop	ebx
	pop	esi
	pop	ebp
	ret	4
	.size	_ZNSt8_Rb_treeISt4pairIiiES1_St9_IdentityIS1_ESt4lessIS1_ESaIS1_EE10_M_insert_INS7_11_Alloc_nodeEEESt17_Rb_tree_iteratorIS1_EPSt18_Rb_tree_node_baseSD_RKS1_RT_, .-_ZNSt8_Rb_treeISt4pairIiiES1_St9_IdentityIS1_ESt4lessIS1_ESaIS1_EE10_M_insert_INS7_11_Alloc_nodeEEESt17_Rb_tree_iteratorIS1_EPSt18_Rb_tree_node_baseSD_RKS1_RT_
	.section	.text._ZNSt4pairISt17_Rb_tree_iteratorIS_IiiEEbEC2ERKS2_RKb,"axG",@progbits,_ZNSt4pairISt17_Rb_tree_iteratorIS_IiiEEbEC5ERKS2_RKb,comdat
	.align 2
	.weak	_ZNSt4pairISt17_Rb_tree_iteratorIS_IiiEEbEC2ERKS2_RKb
	.type	_ZNSt4pairISt17_Rb_tree_iteratorIS_IiiEEbEC2ERKS2_RKb, @function
_ZNSt4pairISt17_Rb_tree_iteratorIS_IiiEEbEC2ERKS2_RKb:
	push	ebp
	mov	ebp, esp
	mov	eax, DWORD PTR [ebp+8]
	mov	edx, DWORD PTR [ebp+12]
	mov	edx, DWORD PTR [edx]
	mov	DWORD PTR [eax], edx
	mov	eax, DWORD PTR [ebp+16]
	mov	dl, BYTE PTR [eax]
	mov	eax, DWORD PTR [ebp+8]
	mov	BYTE PTR [eax+4], dl
	nop
	pop	ebp
	ret
	.size	_ZNSt4pairISt17_Rb_tree_iteratorIS_IiiEEbEC2ERKS2_RKb, .-_ZNSt4pairISt17_Rb_tree_iteratorIS_IiiEEbEC2ERKS2_RKb
	.weak	_ZNSt4pairISt17_Rb_tree_iteratorIS_IiiEEbEC1ERKS2_RKb
	.set	_ZNSt4pairISt17_Rb_tree_iteratorIS_IiiEEbEC1ERKS2_RKb,_ZNSt4pairISt17_Rb_tree_iteratorIS_IiiEEbEC2ERKS2_RKb
	.section	.text._ZNSt17_Rb_tree_iteratorISt4pairIiiEEC2EPSt18_Rb_tree_node_base,"axG",@progbits,_ZNSt17_Rb_tree_iteratorISt4pairIiiEEC5EPSt18_Rb_tree_node_base,comdat
	.align 2
	.weak	_ZNSt17_Rb_tree_iteratorISt4pairIiiEEC2EPSt18_Rb_tree_node_base
	.type	_ZNSt17_Rb_tree_iteratorISt4pairIiiEEC2EPSt18_Rb_tree_node_base, @function
_ZNSt17_Rb_tree_iteratorISt4pairIiiEEC2EPSt18_Rb_tree_node_base:
	push	ebp
	mov	ebp, esp
	mov	eax, DWORD PTR [ebp+8]
	mov	edx, DWORD PTR [ebp+12]
	mov	DWORD PTR [eax], edx
	nop
	pop	ebp
	ret
	.size	_ZNSt17_Rb_tree_iteratorISt4pairIiiEEC2EPSt18_Rb_tree_node_base, .-_ZNSt17_Rb_tree_iteratorISt4pairIiiEEC2EPSt18_Rb_tree_node_base
	.weak	_ZNSt17_Rb_tree_iteratorISt4pairIiiEEC1EPSt18_Rb_tree_node_base
	.set	_ZNSt17_Rb_tree_iteratorISt4pairIiiEEC1EPSt18_Rb_tree_node_base,_ZNSt17_Rb_tree_iteratorISt4pairIiiEEC2EPSt18_Rb_tree_node_base
	.section	.text._ZNSaISt13_Rb_tree_nodeISt4pairIiiEEEC2Ev,"axG",@progbits,_ZNSaISt13_Rb_tree_nodeISt4pairIiiEEEC5Ev,comdat
	.align 2
	.weak	_ZNSaISt13_Rb_tree_nodeISt4pairIiiEEEC2Ev
	.type	_ZNSaISt13_Rb_tree_nodeISt4pairIiiEEEC2Ev, @function
_ZNSaISt13_Rb_tree_nodeISt4pairIiiEEEC2Ev:
	push	ebp
	mov	ebp, esp
	sub	esp, 8
	sub	esp, 12
	push	DWORD PTR [ebp+8]
	call	_ZN9__gnu_cxx13new_allocatorISt13_Rb_tree_nodeISt4pairIiiEEEC2Ev
	add	esp, 16
	nop
	leave
	ret
	.size	_ZNSaISt13_Rb_tree_nodeISt4pairIiiEEEC2Ev, .-_ZNSaISt13_Rb_tree_nodeISt4pairIiiEEEC2Ev
	.weak	_ZNSaISt13_Rb_tree_nodeISt4pairIiiEEEC1Ev
	.set	_ZNSaISt13_Rb_tree_nodeISt4pairIiiEEEC1Ev,_ZNSaISt13_Rb_tree_nodeISt4pairIiiEEEC2Ev
	.section	.text._ZNSt8_Rb_treeISt4pairIiiES1_St9_IdentityIS1_ESt4lessIS1_ESaIS1_EE13_Rb_tree_implIS5_Lb0EE13_M_initializeEv,"axG",@progbits,_ZNSt8_Rb_treeISt4pairIiiES1_St9_IdentityIS1_ESt4lessIS1_ESaIS1_EE13_Rb_tree_implIS5_Lb0EE13_M_initializeEv,comdat
	.align 2
	.weak	_ZNSt8_Rb_treeISt4pairIiiES1_St9_IdentityIS1_ESt4lessIS1_ESaIS1_EE13_Rb_tree_implIS5_Lb0EE13_M_initializeEv
	.type	_ZNSt8_Rb_treeISt4pairIiiES1_St9_IdentityIS1_ESt4lessIS1_ESaIS1_EE13_Rb_tree_implIS5_Lb0EE13_M_initializeEv, @function
_ZNSt8_Rb_treeISt4pairIiiES1_St9_IdentityIS1_ESt4lessIS1_ESaIS1_EE13_Rb_tree_implIS5_Lb0EE13_M_initializeEv:
	push	ebp
	mov	ebp, esp
	mov	eax, DWORD PTR [ebp+8]
	mov	DWORD PTR [eax+4], 0
	mov	eax, DWORD PTR [ebp+8]
	mov	DWORD PTR [eax+8], 0
	mov	eax, DWORD PTR [ebp+8]
	lea	edx, [eax+4]
	mov	eax, DWORD PTR [ebp+8]
	mov	DWORD PTR [eax+12], edx
	mov	eax, DWORD PTR [ebp+8]
	lea	edx, [eax+4]
	mov	eax, DWORD PTR [ebp+8]
	mov	DWORD PTR [eax+16], edx
	nop
	pop	ebp
	ret
	.size	_ZNSt8_Rb_treeISt4pairIiiES1_St9_IdentityIS1_ESt4lessIS1_ESaIS1_EE13_Rb_tree_implIS5_Lb0EE13_M_initializeEv, .-_ZNSt8_Rb_treeISt4pairIiiES1_St9_IdentityIS1_ESt4lessIS1_ESaIS1_EE13_Rb_tree_implIS5_Lb0EE13_M_initializeEv
	.section	.text._ZNSt8_Rb_treeISt4pairIiiES1_St9_IdentityIS1_ESt4lessIS1_ESaIS1_EE15_M_destroy_nodeEPSt13_Rb_tree_nodeIS1_E,"axG",@progbits,_ZNSt8_Rb_treeISt4pairIiiES1_St9_IdentityIS1_ESt4lessIS1_ESaIS1_EE15_M_destroy_nodeEPSt13_Rb_tree_nodeIS1_E,comdat
	.align 2
	.weak	_ZNSt8_Rb_treeISt4pairIiiES1_St9_IdentityIS1_ESt4lessIS1_ESaIS1_EE15_M_destroy_nodeEPSt13_Rb_tree_nodeIS1_E
	.type	_ZNSt8_Rb_treeISt4pairIiiES1_St9_IdentityIS1_ESt4lessIS1_ESaIS1_EE15_M_destroy_nodeEPSt13_Rb_tree_nodeIS1_E, @function
_ZNSt8_Rb_treeISt4pairIiiES1_St9_IdentityIS1_ESt4lessIS1_ESaIS1_EE15_M_destroy_nodeEPSt13_Rb_tree_nodeIS1_E:
	push	ebp
	mov	ebp, esp
	push	ebx
	sub	esp, 36
	mov	eax, DWORD PTR [ebp+8]
	mov	DWORD PTR [ebp-28], eax
	mov	eax, DWORD PTR [ebp+12]
	mov	DWORD PTR [ebp-32], eax
	mov	eax, DWORD PTR gs:20
	mov	DWORD PTR [ebp-12], eax
	xor	eax, eax
	sub	esp, 12
	push	DWORD PTR [ebp-32]
	call	_ZNSt13_Rb_tree_nodeISt4pairIiiEE9_M_valptrEv
	add	esp, 16
	mov	ebx, eax
	lea	eax, [ebp-13]
	sub	esp, 8
	push	DWORD PTR [ebp-28]
	push	eax
	call	_ZNKSt8_Rb_treeISt4pairIiiES1_St9_IdentityIS1_ESt4lessIS1_ESaIS1_EE13get_allocatorEv
	add	esp, 12
	sub	esp, 8
	push	ebx
	lea	eax, [ebp-13]
	push	eax
	call	_ZN9__gnu_cxx13new_allocatorISt4pairIiiEE7destroyEPS2_
	add	esp, 16
	sub	esp, 12
	lea	eax, [ebp-13]
	push	eax
	call	_ZNSaISt4pairIiiEED1Ev
	add	esp, 16
	nop
	mov	eax, DWORD PTR [ebp-12]
	xor	eax, DWORD PTR gs:20
	je	.L117
	call	__stack_chk_fail
.L117:
	mov	ebx, DWORD PTR [ebp-4]
	leave
	ret
	.size	_ZNSt8_Rb_treeISt4pairIiiES1_St9_IdentityIS1_ESt4lessIS1_ESaIS1_EE15_M_destroy_nodeEPSt13_Rb_tree_nodeIS1_E, .-_ZNSt8_Rb_treeISt4pairIiiES1_St9_IdentityIS1_ESt4lessIS1_ESaIS1_EE15_M_destroy_nodeEPSt13_Rb_tree_nodeIS1_E
	.section	.text._ZNSt8_Rb_treeISt4pairIiiES1_St9_IdentityIS1_ESt4lessIS1_ESaIS1_EE11_M_put_nodeEPSt13_Rb_tree_nodeIS1_E,"axG",@progbits,_ZNSt8_Rb_treeISt4pairIiiES1_St9_IdentityIS1_ESt4lessIS1_ESaIS1_EE11_M_put_nodeEPSt13_Rb_tree_nodeIS1_E,comdat
	.align 2
	.weak	_ZNSt8_Rb_treeISt4pairIiiES1_St9_IdentityIS1_ESt4lessIS1_ESaIS1_EE11_M_put_nodeEPSt13_Rb_tree_nodeIS1_E
	.type	_ZNSt8_Rb_treeISt4pairIiiES1_St9_IdentityIS1_ESt4lessIS1_ESaIS1_EE11_M_put_nodeEPSt13_Rb_tree_nodeIS1_E, @function
_ZNSt8_Rb_treeISt4pairIiiES1_St9_IdentityIS1_ESt4lessIS1_ESaIS1_EE11_M_put_nodeEPSt13_Rb_tree_nodeIS1_E:
	push	ebp
	mov	ebp, esp
	sub	esp, 8
	sub	esp, 12
	push	DWORD PTR [ebp+8]
	call	_ZNSt8_Rb_treeISt4pairIiiES1_St9_IdentityIS1_ESt4lessIS1_ESaIS1_EE21_M_get_Node_allocatorEv
	add	esp, 16
	sub	esp, 4
	push	1
	push	DWORD PTR [ebp+12]
	push	eax
	call	_ZN9__gnu_cxx14__alloc_traitsISaISt13_Rb_tree_nodeISt4pairIiiEEEE10deallocateERS5_PS4_j
	add	esp, 16
	nop
	leave
	ret
	.size	_ZNSt8_Rb_treeISt4pairIiiES1_St9_IdentityIS1_ESt4lessIS1_ESaIS1_EE11_M_put_nodeEPSt13_Rb_tree_nodeIS1_E, .-_ZNSt8_Rb_treeISt4pairIiiES1_St9_IdentityIS1_ESt4lessIS1_ESaIS1_EE11_M_put_nodeEPSt13_Rb_tree_nodeIS1_E
	.section	.text._ZNSt8_Rb_treeISt4pairIiiES1_St9_IdentityIS1_ESt4lessIS1_ESaIS1_EE6_S_keyEPKSt13_Rb_tree_nodeIS1_E,"axG",@progbits,_ZNSt8_Rb_treeISt4pairIiiES1_St9_IdentityIS1_ESt4lessIS1_ESaIS1_EE6_S_keyEPKSt13_Rb_tree_nodeIS1_E,comdat
	.weak	_ZNSt8_Rb_treeISt4pairIiiES1_St9_IdentityIS1_ESt4lessIS1_ESaIS1_EE6_S_keyEPKSt13_Rb_tree_nodeIS1_E
	.type	_ZNSt8_Rb_treeISt4pairIiiES1_St9_IdentityIS1_ESt4lessIS1_ESaIS1_EE6_S_keyEPKSt13_Rb_tree_nodeIS1_E, @function
_ZNSt8_Rb_treeISt4pairIiiES1_St9_IdentityIS1_ESt4lessIS1_ESaIS1_EE6_S_keyEPKSt13_Rb_tree_nodeIS1_E:
	push	ebp
	mov	ebp, esp
	sub	esp, 40
	mov	eax, DWORD PTR [ebp+8]
	mov	DWORD PTR [ebp-28], eax
	mov	eax, DWORD PTR gs:20
	mov	DWORD PTR [ebp-12], eax
	xor	eax, eax
	sub	esp, 12
	push	DWORD PTR [ebp-28]
	call	_ZNSt8_Rb_treeISt4pairIiiES1_St9_IdentityIS1_ESt4lessIS1_ESaIS1_EE8_S_valueEPKSt13_Rb_tree_nodeIS1_E
	add	esp, 16
	sub	esp, 8
	push	eax
	lea	eax, [ebp-13]
	push	eax
	call	_ZNKSt9_IdentityISt4pairIiiEEclERKS1_
	add	esp, 16
	mov	edx, DWORD PTR [ebp-12]
	xor	edx, DWORD PTR gs:20
	je	.L121
	call	__stack_chk_fail
.L121:
	leave
	ret
	.size	_ZNSt8_Rb_treeISt4pairIiiES1_St9_IdentityIS1_ESt4lessIS1_ESaIS1_EE6_S_keyEPKSt13_Rb_tree_nodeIS1_E, .-_ZNSt8_Rb_treeISt4pairIiiES1_St9_IdentityIS1_ESt4lessIS1_ESaIS1_EE6_S_keyEPKSt13_Rb_tree_nodeIS1_E
	.section	.text._ZNSt8_Rb_treeISt4pairIiiES1_St9_IdentityIS1_ESt4lessIS1_ESaIS1_EE8_S_valueEPKSt18_Rb_tree_node_base,"axG",@progbits,_ZNSt8_Rb_treeISt4pairIiiES1_St9_IdentityIS1_ESt4lessIS1_ESaIS1_EE8_S_valueEPKSt18_Rb_tree_node_base,comdat
	.weak	_ZNSt8_Rb_treeISt4pairIiiES1_St9_IdentityIS1_ESt4lessIS1_ESaIS1_EE8_S_valueEPKSt18_Rb_tree_node_base
	.type	_ZNSt8_Rb_treeISt4pairIiiES1_St9_IdentityIS1_ESt4lessIS1_ESaIS1_EE8_S_valueEPKSt18_Rb_tree_node_base, @function
_ZNSt8_Rb_treeISt4pairIiiES1_St9_IdentityIS1_ESt4lessIS1_ESaIS1_EE8_S_valueEPKSt18_Rb_tree_node_base:
	push	ebp
	mov	ebp, esp
	sub	esp, 8
	sub	esp, 12
	push	DWORD PTR [ebp+8]
	call	_ZNKSt13_Rb_tree_nodeISt4pairIiiEE9_M_valptrEv
	add	esp, 16
	leave
	ret
	.size	_ZNSt8_Rb_treeISt4pairIiiES1_St9_IdentityIS1_ESt4lessIS1_ESaIS1_EE8_S_valueEPKSt18_Rb_tree_node_base, .-_ZNSt8_Rb_treeISt4pairIiiES1_St9_IdentityIS1_ESt4lessIS1_ESaIS1_EE8_S_valueEPKSt18_Rb_tree_node_base
	.section	.text._ZStltIiiEbRKSt4pairIT_T0_ES5_,"axG",@progbits,_ZStltIiiEbRKSt4pairIT_T0_ES5_,comdat
	.weak	_ZStltIiiEbRKSt4pairIT_T0_ES5_
	.type	_ZStltIiiEbRKSt4pairIT_T0_ES5_, @function
_ZStltIiiEbRKSt4pairIT_T0_ES5_:
	push	ebp
	mov	ebp, esp
	mov	eax, DWORD PTR [ebp+8]
	mov	edx, DWORD PTR [eax]
	mov	eax, DWORD PTR [ebp+12]
	mov	eax, DWORD PTR [eax]
	cmp	edx, eax
	jl	.L125
	mov	eax, DWORD PTR [ebp+12]
	mov	edx, DWORD PTR [eax]
	mov	eax, DWORD PTR [ebp+8]
	mov	eax, DWORD PTR [eax]
	cmp	edx, eax
	jl	.L126
	mov	eax, DWORD PTR [ebp+8]
	mov	edx, DWORD PTR [eax+4]
	mov	eax, DWORD PTR [ebp+12]
	mov	eax, DWORD PTR [eax+4]
	cmp	edx, eax
	jge	.L126
.L125:
	mov	al, 1
	jmp	.L128
.L126:
	mov	al, 0
.L128:
	pop	ebp
	ret
	.size	_ZStltIiiEbRKSt4pairIT_T0_ES5_, .-_ZStltIiiEbRKSt4pairIT_T0_ES5_
	.section	.text._ZNSt8_Rb_treeISt4pairIiiES1_St9_IdentityIS1_ESt4lessIS1_ESaIS1_EE5beginEv,"axG",@progbits,_ZNSt8_Rb_treeISt4pairIiiES1_St9_IdentityIS1_ESt4lessIS1_ESaIS1_EE5beginEv,comdat
	.align 2
	.weak	_ZNSt8_Rb_treeISt4pairIiiES1_St9_IdentityIS1_ESt4lessIS1_ESaIS1_EE5beginEv
	.type	_ZNSt8_Rb_treeISt4pairIiiES1_St9_IdentityIS1_ESt4lessIS1_ESaIS1_EE5beginEv, @function
_ZNSt8_Rb_treeISt4pairIiiES1_St9_IdentityIS1_ESt4lessIS1_ESaIS1_EE5beginEv:
	push	ebp
	mov	ebp, esp
	sub	esp, 8
	mov	eax, DWORD PTR [ebp+12]
	mov	eax, DWORD PTR [eax+12]
	sub	esp, 8
	push	eax
	push	DWORD PTR [ebp+8]
	call	_ZNSt17_Rb_tree_iteratorISt4pairIiiEEC1EPSt18_Rb_tree_node_base
	add	esp, 16
	mov	eax, DWORD PTR [ebp+8]
	leave
	ret	4
	.size	_ZNSt8_Rb_treeISt4pairIiiES1_St9_IdentityIS1_ESt4lessIS1_ESaIS1_EE5beginEv, .-_ZNSt8_Rb_treeISt4pairIiiES1_St9_IdentityIS1_ESt4lessIS1_ESaIS1_EE5beginEv
	.section	.text._ZNSt4pairIPSt18_Rb_tree_node_baseS1_EC2ERKS1_S4_,"axG",@progbits,_ZNSt4pairIPSt18_Rb_tree_node_baseS1_EC5ERKS1_S4_,comdat
	.align 2
	.weak	_ZNSt4pairIPSt18_Rb_tree_node_baseS1_EC2ERKS1_S4_
	.type	_ZNSt4pairIPSt18_Rb_tree_node_baseS1_EC2ERKS1_S4_, @function
_ZNSt4pairIPSt18_Rb_tree_node_baseS1_EC2ERKS1_S4_:
	push	ebp
	mov	ebp, esp
	mov	eax, DWORD PTR [ebp+12]
	mov	edx, DWORD PTR [eax]
	mov	eax, DWORD PTR [ebp+8]
	mov	DWORD PTR [eax], edx
	mov	eax, DWORD PTR [ebp+16]
	mov	edx, DWORD PTR [eax]
	mov	eax, DWORD PTR [ebp+8]
	mov	DWORD PTR [eax+4], edx
	nop
	pop	ebp
	ret
	.size	_ZNSt4pairIPSt18_Rb_tree_node_baseS1_EC2ERKS1_S4_, .-_ZNSt4pairIPSt18_Rb_tree_node_baseS1_EC2ERKS1_S4_
	.weak	_ZNSt4pairIPSt18_Rb_tree_node_baseS1_EC1ERKS1_S4_
	.set	_ZNSt4pairIPSt18_Rb_tree_node_baseS1_EC1ERKS1_S4_,_ZNSt4pairIPSt18_Rb_tree_node_baseS1_EC2ERKS1_S4_
	.section	.text._ZNSt17_Rb_tree_iteratorISt4pairIiiEEmmEv,"axG",@progbits,_ZNSt17_Rb_tree_iteratorISt4pairIiiEEmmEv,comdat
	.align 2
	.weak	_ZNSt17_Rb_tree_iteratorISt4pairIiiEEmmEv
	.type	_ZNSt17_Rb_tree_iteratorISt4pairIiiEEmmEv, @function
_ZNSt17_Rb_tree_iteratorISt4pairIiiEEmmEv:
	push	ebp
	mov	ebp, esp
	sub	esp, 8
	mov	eax, DWORD PTR [ebp+8]
	mov	eax, DWORD PTR [eax]
	sub	esp, 12
	push	eax
	call	_ZSt18_Rb_tree_decrementPSt18_Rb_tree_node_base
	add	esp, 16
	mov	edx, eax
	mov	eax, DWORD PTR [ebp+8]
	mov	DWORD PTR [eax], edx
	mov	eax, DWORD PTR [ebp+8]
	leave
	ret
	.size	_ZNSt17_Rb_tree_iteratorISt4pairIiiEEmmEv, .-_ZNSt17_Rb_tree_iteratorISt4pairIiiEEmmEv
	.section	.text._ZNKSt8_Rb_treeISt4pairIiiES1_St9_IdentityIS1_ESt4lessIS1_ESaIS1_EE11_Alloc_nodeclIS1_EEPSt13_Rb_tree_nodeIS1_ERKT_,"axG",@progbits,_ZNKSt8_Rb_treeISt4pairIiiES1_St9_IdentityIS1_ESt4lessIS1_ESaIS1_EE11_Alloc_nodeclIS1_EEPSt13_Rb_tree_nodeIS1_ERKT_,comdat
	.align 2
	.weak	_ZNKSt8_Rb_treeISt4pairIiiES1_St9_IdentityIS1_ESt4lessIS1_ESaIS1_EE11_Alloc_nodeclIS1_EEPSt13_Rb_tree_nodeIS1_ERKT_
	.type	_ZNKSt8_Rb_treeISt4pairIiiES1_St9_IdentityIS1_ESt4lessIS1_ESaIS1_EE11_Alloc_nodeclIS1_EEPSt13_Rb_tree_nodeIS1_ERKT_, @function
_ZNKSt8_Rb_treeISt4pairIiiES1_St9_IdentityIS1_ESt4lessIS1_ESaIS1_EE11_Alloc_nodeclIS1_EEPSt13_Rb_tree_nodeIS1_ERKT_:
	push	ebp
	mov	ebp, esp
	sub	esp, 8
	mov	eax, DWORD PTR [ebp+8]
	mov	eax, DWORD PTR [eax]
	sub	esp, 8
	push	DWORD PTR [ebp+12]
	push	eax
	call	_ZNSt8_Rb_treeISt4pairIiiES1_St9_IdentityIS1_ESt4lessIS1_ESaIS1_EE14_M_create_nodeERKS1_
	add	esp, 16
	leave
	ret
	.size	_ZNKSt8_Rb_treeISt4pairIiiES1_St9_IdentityIS1_ESt4lessIS1_ESaIS1_EE11_Alloc_nodeclIS1_EEPSt13_Rb_tree_nodeIS1_ERKT_, .-_ZNKSt8_Rb_treeISt4pairIiiES1_St9_IdentityIS1_ESt4lessIS1_ESaIS1_EE11_Alloc_nodeclIS1_EEPSt13_Rb_tree_nodeIS1_ERKT_
	.section	.text._ZN9__gnu_cxx13new_allocatorISt13_Rb_tree_nodeISt4pairIiiEEEC2Ev,"axG",@progbits,_ZN9__gnu_cxx13new_allocatorISt13_Rb_tree_nodeISt4pairIiiEEEC5Ev,comdat
	.align 2
	.weak	_ZN9__gnu_cxx13new_allocatorISt13_Rb_tree_nodeISt4pairIiiEEEC2Ev
	.type	_ZN9__gnu_cxx13new_allocatorISt13_Rb_tree_nodeISt4pairIiiEEEC2Ev, @function
_ZN9__gnu_cxx13new_allocatorISt13_Rb_tree_nodeISt4pairIiiEEEC2Ev:
	push	ebp
	mov	ebp, esp
	nop
	pop	ebp
	ret
	.size	_ZN9__gnu_cxx13new_allocatorISt13_Rb_tree_nodeISt4pairIiiEEEC2Ev, .-_ZN9__gnu_cxx13new_allocatorISt13_Rb_tree_nodeISt4pairIiiEEEC2Ev
	.weak	_ZN9__gnu_cxx13new_allocatorISt13_Rb_tree_nodeISt4pairIiiEEEC1Ev
	.set	_ZN9__gnu_cxx13new_allocatorISt13_Rb_tree_nodeISt4pairIiiEEEC1Ev,_ZN9__gnu_cxx13new_allocatorISt13_Rb_tree_nodeISt4pairIiiEEEC2Ev
	.section	.text._ZNKSt8_Rb_treeISt4pairIiiES1_St9_IdentityIS1_ESt4lessIS1_ESaIS1_EE13get_allocatorEv,"axG",@progbits,_ZNKSt8_Rb_treeISt4pairIiiES1_St9_IdentityIS1_ESt4lessIS1_ESaIS1_EE13get_allocatorEv,comdat
	.align 2
	.weak	_ZNKSt8_Rb_treeISt4pairIiiES1_St9_IdentityIS1_ESt4lessIS1_ESaIS1_EE13get_allocatorEv
	.type	_ZNKSt8_Rb_treeISt4pairIiiES1_St9_IdentityIS1_ESt4lessIS1_ESaIS1_EE13get_allocatorEv, @function
_ZNKSt8_Rb_treeISt4pairIiiES1_St9_IdentityIS1_ESt4lessIS1_ESaIS1_EE13get_allocatorEv:
	push	ebp
	mov	ebp, esp
	sub	esp, 8
	sub	esp, 12
	push	DWORD PTR [ebp+12]
	call	_ZNKSt8_Rb_treeISt4pairIiiES1_St9_IdentityIS1_ESt4lessIS1_ESaIS1_EE21_M_get_Node_allocatorEv
	add	esp, 16
	sub	esp, 8
	push	eax
	push	DWORD PTR [ebp+8]
	call	_ZNSaISt4pairIiiEEC1ISt13_Rb_tree_nodeIS0_EEERKSaIT_E
	add	esp, 16
	mov	eax, DWORD PTR [ebp+8]
	leave
	ret	4
	.size	_ZNKSt8_Rb_treeISt4pairIiiES1_St9_IdentityIS1_ESt4lessIS1_ESaIS1_EE13get_allocatorEv, .-_ZNKSt8_Rb_treeISt4pairIiiES1_St9_IdentityIS1_ESt4lessIS1_ESaIS1_EE13get_allocatorEv
	.section	.text._ZNSaISt4pairIiiEED2Ev,"axG",@progbits,_ZNSaISt4pairIiiEED5Ev,comdat
	.align 2
	.weak	_ZNSaISt4pairIiiEED2Ev
	.type	_ZNSaISt4pairIiiEED2Ev, @function
_ZNSaISt4pairIiiEED2Ev:
	push	ebp
	mov	ebp, esp
	sub	esp, 8
	sub	esp, 12
	push	DWORD PTR [ebp+8]
	call	_ZN9__gnu_cxx13new_allocatorISt4pairIiiEED2Ev
	add	esp, 16
	nop
	leave
	ret
	.size	_ZNSaISt4pairIiiEED2Ev, .-_ZNSaISt4pairIiiEED2Ev
	.weak	_ZNSaISt4pairIiiEED1Ev
	.set	_ZNSaISt4pairIiiEED1Ev,_ZNSaISt4pairIiiEED2Ev
	.section	.text._ZNSt13_Rb_tree_nodeISt4pairIiiEE9_M_valptrEv,"axG",@progbits,_ZNSt13_Rb_tree_nodeISt4pairIiiEE9_M_valptrEv,comdat
	.align 2
	.weak	_ZNSt13_Rb_tree_nodeISt4pairIiiEE9_M_valptrEv
	.type	_ZNSt13_Rb_tree_nodeISt4pairIiiEE9_M_valptrEv, @function
_ZNSt13_Rb_tree_nodeISt4pairIiiEE9_M_valptrEv:
	push	ebp
	mov	ebp, esp
	sub	esp, 8
	mov	eax, DWORD PTR [ebp+8]
	add	eax, 16
	sub	esp, 12
	push	eax
	call	_ZSt11__addressofISt4pairIiiEEPT_RS2_
	add	esp, 16
	leave
	ret
	.size	_ZNSt13_Rb_tree_nodeISt4pairIiiEE9_M_valptrEv, .-_ZNSt13_Rb_tree_nodeISt4pairIiiEE9_M_valptrEv
	.section	.text._ZN9__gnu_cxx13new_allocatorISt4pairIiiEE7destroyEPS2_,"axG",@progbits,_ZN9__gnu_cxx13new_allocatorISt4pairIiiEE7destroyEPS2_,comdat
	.align 2
	.weak	_ZN9__gnu_cxx13new_allocatorISt4pairIiiEE7destroyEPS2_
	.type	_ZN9__gnu_cxx13new_allocatorISt4pairIiiEE7destroyEPS2_, @function
_ZN9__gnu_cxx13new_allocatorISt4pairIiiEE7destroyEPS2_:
	push	ebp
	mov	ebp, esp
	nop
	pop	ebp
	ret
	.size	_ZN9__gnu_cxx13new_allocatorISt4pairIiiEE7destroyEPS2_, .-_ZN9__gnu_cxx13new_allocatorISt4pairIiiEE7destroyEPS2_
	.section	.text._ZN9__gnu_cxx14__alloc_traitsISaISt13_Rb_tree_nodeISt4pairIiiEEEE10deallocateERS5_PS4_j,"axG",@progbits,_ZN9__gnu_cxx14__alloc_traitsISaISt13_Rb_tree_nodeISt4pairIiiEEEE10deallocateERS5_PS4_j,comdat
	.weak	_ZN9__gnu_cxx14__alloc_traitsISaISt13_Rb_tree_nodeISt4pairIiiEEEE10deallocateERS5_PS4_j
	.type	_ZN9__gnu_cxx14__alloc_traitsISaISt13_Rb_tree_nodeISt4pairIiiEEEE10deallocateERS5_PS4_j, @function
_ZN9__gnu_cxx14__alloc_traitsISaISt13_Rb_tree_nodeISt4pairIiiEEEE10deallocateERS5_PS4_j:
	push	ebp
	mov	ebp, esp
	sub	esp, 8
	sub	esp, 4
	push	DWORD PTR [ebp+16]
	push	DWORD PTR [ebp+12]
	push	DWORD PTR [ebp+8]
	call	_ZN9__gnu_cxx13new_allocatorISt13_Rb_tree_nodeISt4pairIiiEEE10deallocateEPS4_j
	add	esp, 16
	nop
	leave
	ret
	.size	_ZN9__gnu_cxx14__alloc_traitsISaISt13_Rb_tree_nodeISt4pairIiiEEEE10deallocateERS5_PS4_j, .-_ZN9__gnu_cxx14__alloc_traitsISaISt13_Rb_tree_nodeISt4pairIiiEEEE10deallocateERS5_PS4_j
	.section	.text._ZNSt8_Rb_treeISt4pairIiiES1_St9_IdentityIS1_ESt4lessIS1_ESaIS1_EE21_M_get_Node_allocatorEv,"axG",@progbits,_ZNSt8_Rb_treeISt4pairIiiES1_St9_IdentityIS1_ESt4lessIS1_ESaIS1_EE21_M_get_Node_allocatorEv,comdat
	.align 2
	.weak	_ZNSt8_Rb_treeISt4pairIiiES1_St9_IdentityIS1_ESt4lessIS1_ESaIS1_EE21_M_get_Node_allocatorEv
	.type	_ZNSt8_Rb_treeISt4pairIiiES1_St9_IdentityIS1_ESt4lessIS1_ESaIS1_EE21_M_get_Node_allocatorEv, @function
_ZNSt8_Rb_treeISt4pairIiiES1_St9_IdentityIS1_ESt4lessIS1_ESaIS1_EE21_M_get_Node_allocatorEv:
	push	ebp
	mov	ebp, esp
	mov	eax, DWORD PTR [ebp+8]
	pop	ebp
	ret
	.size	_ZNSt8_Rb_treeISt4pairIiiES1_St9_IdentityIS1_ESt4lessIS1_ESaIS1_EE21_M_get_Node_allocatorEv, .-_ZNSt8_Rb_treeISt4pairIiiES1_St9_IdentityIS1_ESt4lessIS1_ESaIS1_EE21_M_get_Node_allocatorEv
	.section	.text._ZNSt8_Rb_treeISt4pairIiiES1_St9_IdentityIS1_ESt4lessIS1_ESaIS1_EE8_S_valueEPKSt13_Rb_tree_nodeIS1_E,"axG",@progbits,_ZNSt8_Rb_treeISt4pairIiiES1_St9_IdentityIS1_ESt4lessIS1_ESaIS1_EE8_S_valueEPKSt13_Rb_tree_nodeIS1_E,comdat
	.weak	_ZNSt8_Rb_treeISt4pairIiiES1_St9_IdentityIS1_ESt4lessIS1_ESaIS1_EE8_S_valueEPKSt13_Rb_tree_nodeIS1_E
	.type	_ZNSt8_Rb_treeISt4pairIiiES1_St9_IdentityIS1_ESt4lessIS1_ESaIS1_EE8_S_valueEPKSt13_Rb_tree_nodeIS1_E, @function
_ZNSt8_Rb_treeISt4pairIiiES1_St9_IdentityIS1_ESt4lessIS1_ESaIS1_EE8_S_valueEPKSt13_Rb_tree_nodeIS1_E:
	push	ebp
	mov	ebp, esp
	sub	esp, 8
	sub	esp, 12
	push	DWORD PTR [ebp+8]
	call	_ZNKSt13_Rb_tree_nodeISt4pairIiiEE9_M_valptrEv
	add	esp, 16
	leave
	ret
	.size	_ZNSt8_Rb_treeISt4pairIiiES1_St9_IdentityIS1_ESt4lessIS1_ESaIS1_EE8_S_valueEPKSt13_Rb_tree_nodeIS1_E, .-_ZNSt8_Rb_treeISt4pairIiiES1_St9_IdentityIS1_ESt4lessIS1_ESaIS1_EE8_S_valueEPKSt13_Rb_tree_nodeIS1_E
	.section	.text._ZNKSt13_Rb_tree_nodeISt4pairIiiEE9_M_valptrEv,"axG",@progbits,_ZNKSt13_Rb_tree_nodeISt4pairIiiEE9_M_valptrEv,comdat
	.align 2
	.weak	_ZNKSt13_Rb_tree_nodeISt4pairIiiEE9_M_valptrEv
	.type	_ZNKSt13_Rb_tree_nodeISt4pairIiiEE9_M_valptrEv, @function
_ZNKSt13_Rb_tree_nodeISt4pairIiiEE9_M_valptrEv:
	push	ebp
	mov	ebp, esp
	sub	esp, 8
	mov	eax, DWORD PTR [ebp+8]
	add	eax, 16
	sub	esp, 12
	push	eax
	call	_ZSt11__addressofIKSt4pairIiiEEPT_RS3_
	add	esp, 16
	leave
	ret
	.size	_ZNKSt13_Rb_tree_nodeISt4pairIiiEE9_M_valptrEv, .-_ZNKSt13_Rb_tree_nodeISt4pairIiiEE9_M_valptrEv
	.section	.text._ZNSt8_Rb_treeISt4pairIiiES1_St9_IdentityIS1_ESt4lessIS1_ESaIS1_EE14_M_create_nodeERKS1_,"axG",@progbits,_ZNSt8_Rb_treeISt4pairIiiES1_St9_IdentityIS1_ESt4lessIS1_ESaIS1_EE14_M_create_nodeERKS1_,comdat
	.align 2
	.weak	_ZNSt8_Rb_treeISt4pairIiiES1_St9_IdentityIS1_ESt4lessIS1_ESaIS1_EE14_M_create_nodeERKS1_
	.type	_ZNSt8_Rb_treeISt4pairIiiES1_St9_IdentityIS1_ESt4lessIS1_ESaIS1_EE14_M_create_nodeERKS1_, @function
_ZNSt8_Rb_treeISt4pairIiiES1_St9_IdentityIS1_ESt4lessIS1_ESaIS1_EE14_M_create_nodeERKS1_:
	push	ebp
	mov	ebp, esp
	sub	esp, 24
	sub	esp, 12
	push	DWORD PTR [ebp+8]
	call	_ZNSt8_Rb_treeISt4pairIiiES1_St9_IdentityIS1_ESt4lessIS1_ESaIS1_EE11_M_get_nodeEv
	add	esp, 16
	mov	DWORD PTR [ebp-12], eax
	sub	esp, 4
	push	DWORD PTR [ebp+12]
	push	DWORD PTR [ebp-12]
	push	DWORD PTR [ebp+8]
	call	_ZNSt8_Rb_treeISt4pairIiiES1_St9_IdentityIS1_ESt4lessIS1_ESaIS1_EE17_M_construct_nodeEPSt13_Rb_tree_nodeIS1_ERKS1_
	add	esp, 16
	mov	eax, DWORD PTR [ebp-12]
	leave
	ret
	.size	_ZNSt8_Rb_treeISt4pairIiiES1_St9_IdentityIS1_ESt4lessIS1_ESaIS1_EE14_M_create_nodeERKS1_, .-_ZNSt8_Rb_treeISt4pairIiiES1_St9_IdentityIS1_ESt4lessIS1_ESaIS1_EE14_M_create_nodeERKS1_
	.section	.text._ZNKSt8_Rb_treeISt4pairIiiES1_St9_IdentityIS1_ESt4lessIS1_ESaIS1_EE21_M_get_Node_allocatorEv,"axG",@progbits,_ZNKSt8_Rb_treeISt4pairIiiES1_St9_IdentityIS1_ESt4lessIS1_ESaIS1_EE21_M_get_Node_allocatorEv,comdat
	.align 2
	.weak	_ZNKSt8_Rb_treeISt4pairIiiES1_St9_IdentityIS1_ESt4lessIS1_ESaIS1_EE21_M_get_Node_allocatorEv
	.type	_ZNKSt8_Rb_treeISt4pairIiiES1_St9_IdentityIS1_ESt4lessIS1_ESaIS1_EE21_M_get_Node_allocatorEv, @function
_ZNKSt8_Rb_treeISt4pairIiiES1_St9_IdentityIS1_ESt4lessIS1_ESaIS1_EE21_M_get_Node_allocatorEv:
	push	ebp
	mov	ebp, esp
	mov	eax, DWORD PTR [ebp+8]
	pop	ebp
	ret
	.size	_ZNKSt8_Rb_treeISt4pairIiiES1_St9_IdentityIS1_ESt4lessIS1_ESaIS1_EE21_M_get_Node_allocatorEv, .-_ZNKSt8_Rb_treeISt4pairIiiES1_St9_IdentityIS1_ESt4lessIS1_ESaIS1_EE21_M_get_Node_allocatorEv
	.section	.text._ZNSaISt4pairIiiEEC2ISt13_Rb_tree_nodeIS0_EEERKSaIT_E,"axG",@progbits,_ZNSaISt4pairIiiEEC5ISt13_Rb_tree_nodeIS0_EEERKSaIT_E,comdat
	.align 2
	.weak	_ZNSaISt4pairIiiEEC2ISt13_Rb_tree_nodeIS0_EEERKSaIT_E
	.type	_ZNSaISt4pairIiiEEC2ISt13_Rb_tree_nodeIS0_EEERKSaIT_E, @function
_ZNSaISt4pairIiiEEC2ISt13_Rb_tree_nodeIS0_EEERKSaIT_E:
	push	ebp
	mov	ebp, esp
	sub	esp, 8
	sub	esp, 12
	push	DWORD PTR [ebp+8]
	call	_ZN9__gnu_cxx13new_allocatorISt4pairIiiEEC2Ev
	add	esp, 16
	nop
	leave
	ret
	.size	_ZNSaISt4pairIiiEEC2ISt13_Rb_tree_nodeIS0_EEERKSaIT_E, .-_ZNSaISt4pairIiiEEC2ISt13_Rb_tree_nodeIS0_EEERKSaIT_E
	.weak	_ZNSaISt4pairIiiEEC1ISt13_Rb_tree_nodeIS0_EEERKSaIT_E
	.set	_ZNSaISt4pairIiiEEC1ISt13_Rb_tree_nodeIS0_EEERKSaIT_E,_ZNSaISt4pairIiiEEC2ISt13_Rb_tree_nodeIS0_EEERKSaIT_E
	.section	.text._ZN9__gnu_cxx13new_allocatorISt4pairIiiEED2Ev,"axG",@progbits,_ZN9__gnu_cxx13new_allocatorISt4pairIiiEED5Ev,comdat
	.align 2
	.weak	_ZN9__gnu_cxx13new_allocatorISt4pairIiiEED2Ev
	.type	_ZN9__gnu_cxx13new_allocatorISt4pairIiiEED2Ev, @function
_ZN9__gnu_cxx13new_allocatorISt4pairIiiEED2Ev:
	push	ebp
	mov	ebp, esp
	nop
	pop	ebp
	ret
	.size	_ZN9__gnu_cxx13new_allocatorISt4pairIiiEED2Ev, .-_ZN9__gnu_cxx13new_allocatorISt4pairIiiEED2Ev
	.weak	_ZN9__gnu_cxx13new_allocatorISt4pairIiiEED1Ev
	.set	_ZN9__gnu_cxx13new_allocatorISt4pairIiiEED1Ev,_ZN9__gnu_cxx13new_allocatorISt4pairIiiEED2Ev
	.section	.text._ZSt11__addressofISt4pairIiiEEPT_RS2_,"axG",@progbits,_ZSt11__addressofISt4pairIiiEEPT_RS2_,comdat
	.weak	_ZSt11__addressofISt4pairIiiEEPT_RS2_
	.type	_ZSt11__addressofISt4pairIiiEEPT_RS2_, @function
_ZSt11__addressofISt4pairIiiEEPT_RS2_:
	push	ebp
	mov	ebp, esp
	mov	eax, DWORD PTR [ebp+8]
	pop	ebp
	ret
	.size	_ZSt11__addressofISt4pairIiiEEPT_RS2_, .-_ZSt11__addressofISt4pairIiiEEPT_RS2_
	.section	.text._ZN9__gnu_cxx13new_allocatorISt13_Rb_tree_nodeISt4pairIiiEEE10deallocateEPS4_j,"axG",@progbits,_ZN9__gnu_cxx13new_allocatorISt13_Rb_tree_nodeISt4pairIiiEEE10deallocateEPS4_j,comdat
	.align 2
	.weak	_ZN9__gnu_cxx13new_allocatorISt13_Rb_tree_nodeISt4pairIiiEEE10deallocateEPS4_j
	.type	_ZN9__gnu_cxx13new_allocatorISt13_Rb_tree_nodeISt4pairIiiEEE10deallocateEPS4_j, @function
_ZN9__gnu_cxx13new_allocatorISt13_Rb_tree_nodeISt4pairIiiEEE10deallocateEPS4_j:
	push	ebp
	mov	ebp, esp
	sub	esp, 8
	sub	esp, 12
	push	DWORD PTR [ebp+12]
	call	_ZdlPv
	add	esp, 16
	nop
	leave
	ret
	.size	_ZN9__gnu_cxx13new_allocatorISt13_Rb_tree_nodeISt4pairIiiEEE10deallocateEPS4_j, .-_ZN9__gnu_cxx13new_allocatorISt13_Rb_tree_nodeISt4pairIiiEEE10deallocateEPS4_j
	.section	.text._ZSt11__addressofIKSt4pairIiiEEPT_RS3_,"axG",@progbits,_ZSt11__addressofIKSt4pairIiiEEPT_RS3_,comdat
	.weak	_ZSt11__addressofIKSt4pairIiiEEPT_RS3_
	.type	_ZSt11__addressofIKSt4pairIiiEEPT_RS3_, @function
_ZSt11__addressofIKSt4pairIiiEEPT_RS3_:
	push	ebp
	mov	ebp, esp
	mov	eax, DWORD PTR [ebp+8]
	pop	ebp
	ret
	.size	_ZSt11__addressofIKSt4pairIiiEEPT_RS3_, .-_ZSt11__addressofIKSt4pairIiiEEPT_RS3_
	.section	.text._ZNSt8_Rb_treeISt4pairIiiES1_St9_IdentityIS1_ESt4lessIS1_ESaIS1_EE11_M_get_nodeEv,"axG",@progbits,_ZNSt8_Rb_treeISt4pairIiiES1_St9_IdentityIS1_ESt4lessIS1_ESaIS1_EE11_M_get_nodeEv,comdat
	.align 2
	.weak	_ZNSt8_Rb_treeISt4pairIiiES1_St9_IdentityIS1_ESt4lessIS1_ESaIS1_EE11_M_get_nodeEv
	.type	_ZNSt8_Rb_treeISt4pairIiiES1_St9_IdentityIS1_ESt4lessIS1_ESaIS1_EE11_M_get_nodeEv, @function
_ZNSt8_Rb_treeISt4pairIiiES1_St9_IdentityIS1_ESt4lessIS1_ESaIS1_EE11_M_get_nodeEv:
	push	ebp
	mov	ebp, esp
	sub	esp, 8
	sub	esp, 12
	push	DWORD PTR [ebp+8]
	call	_ZNSt8_Rb_treeISt4pairIiiES1_St9_IdentityIS1_ESt4lessIS1_ESaIS1_EE21_M_get_Node_allocatorEv
	add	esp, 16
	sub	esp, 8
	push	1
	push	eax
	call	_ZN9__gnu_cxx14__alloc_traitsISaISt13_Rb_tree_nodeISt4pairIiiEEEE8allocateERS5_j
	add	esp, 16
	leave
	ret
	.size	_ZNSt8_Rb_treeISt4pairIiiES1_St9_IdentityIS1_ESt4lessIS1_ESaIS1_EE11_M_get_nodeEv, .-_ZNSt8_Rb_treeISt4pairIiiES1_St9_IdentityIS1_ESt4lessIS1_ESaIS1_EE11_M_get_nodeEv
	.section	.text._ZNSt8_Rb_treeISt4pairIiiES1_St9_IdentityIS1_ESt4lessIS1_ESaIS1_EE17_M_construct_nodeEPSt13_Rb_tree_nodeIS1_ERKS1_,"axG",@progbits,_ZNSt8_Rb_treeISt4pairIiiES1_St9_IdentityIS1_ESt4lessIS1_ESaIS1_EE17_M_construct_nodeEPSt13_Rb_tree_nodeIS1_ERKS1_,comdat
	.align 2
	.weak	_ZNSt8_Rb_treeISt4pairIiiES1_St9_IdentityIS1_ESt4lessIS1_ESaIS1_EE17_M_construct_nodeEPSt13_Rb_tree_nodeIS1_ERKS1_
	.type	_ZNSt8_Rb_treeISt4pairIiiES1_St9_IdentityIS1_ESt4lessIS1_ESaIS1_EE17_M_construct_nodeEPSt13_Rb_tree_nodeIS1_ERKS1_, @function
_ZNSt8_Rb_treeISt4pairIiiES1_St9_IdentityIS1_ESt4lessIS1_ESaIS1_EE17_M_construct_nodeEPSt13_Rb_tree_nodeIS1_ERKS1_:
	push	ebp
	mov	ebp, esp
	push	ebx
	sub	esp, 36
	mov	eax, DWORD PTR [ebp+8]
	mov	DWORD PTR [ebp-28], eax
	mov	eax, DWORD PTR [ebp+12]
	mov	DWORD PTR [ebp-32], eax
	mov	eax, DWORD PTR [ebp+16]
	mov	DWORD PTR [ebp-36], eax
	mov	eax, DWORD PTR gs:20
	mov	DWORD PTR [ebp-12], eax
	xor	eax, eax
	sub	esp, 12
	push	DWORD PTR [ebp-32]
	call	_ZNSt13_Rb_tree_nodeISt4pairIiiEE9_M_valptrEv
	add	esp, 16
	mov	ebx, eax
	lea	eax, [ebp-13]
	sub	esp, 8
	push	DWORD PTR [ebp-28]
	push	eax
	call	_ZNKSt8_Rb_treeISt4pairIiiES1_St9_IdentityIS1_ESt4lessIS1_ESaIS1_EE13get_allocatorEv
	add	esp, 12
	sub	esp, 4
	push	DWORD PTR [ebp-36]
	push	ebx
	lea	eax, [ebp-13]
	push	eax
	call	_ZN9__gnu_cxx13new_allocatorISt4pairIiiEE9constructEPS2_RKS2_
	add	esp, 16
	sub	esp, 12
	lea	eax, [ebp-13]
	push	eax
	call	_ZNSaISt4pairIiiEED1Ev
	add	esp, 16
	nop
	mov	eax, DWORD PTR [ebp-12]
	xor	eax, DWORD PTR gs:20
	je	.L164
	call	__stack_chk_fail
.L164:
	mov	ebx, DWORD PTR [ebp-4]
	leave
	ret
	.size	_ZNSt8_Rb_treeISt4pairIiiES1_St9_IdentityIS1_ESt4lessIS1_ESaIS1_EE17_M_construct_nodeEPSt13_Rb_tree_nodeIS1_ERKS1_, .-_ZNSt8_Rb_treeISt4pairIiiES1_St9_IdentityIS1_ESt4lessIS1_ESaIS1_EE17_M_construct_nodeEPSt13_Rb_tree_nodeIS1_ERKS1_
	.section	.text._ZN9__gnu_cxx13new_allocatorISt4pairIiiEEC2Ev,"axG",@progbits,_ZN9__gnu_cxx13new_allocatorISt4pairIiiEEC5Ev,comdat
	.align 2
	.weak	_ZN9__gnu_cxx13new_allocatorISt4pairIiiEEC2Ev
	.type	_ZN9__gnu_cxx13new_allocatorISt4pairIiiEEC2Ev, @function
_ZN9__gnu_cxx13new_allocatorISt4pairIiiEEC2Ev:
	push	ebp
	mov	ebp, esp
	nop
	pop	ebp
	ret
	.size	_ZN9__gnu_cxx13new_allocatorISt4pairIiiEEC2Ev, .-_ZN9__gnu_cxx13new_allocatorISt4pairIiiEEC2Ev
	.weak	_ZN9__gnu_cxx13new_allocatorISt4pairIiiEEC1Ev
	.set	_ZN9__gnu_cxx13new_allocatorISt4pairIiiEEC1Ev,_ZN9__gnu_cxx13new_allocatorISt4pairIiiEEC2Ev
	.section	.text._ZN9__gnu_cxx14__alloc_traitsISaISt13_Rb_tree_nodeISt4pairIiiEEEE8allocateERS5_j,"axG",@progbits,_ZN9__gnu_cxx14__alloc_traitsISaISt13_Rb_tree_nodeISt4pairIiiEEEE8allocateERS5_j,comdat
	.weak	_ZN9__gnu_cxx14__alloc_traitsISaISt13_Rb_tree_nodeISt4pairIiiEEEE8allocateERS5_j
	.type	_ZN9__gnu_cxx14__alloc_traitsISaISt13_Rb_tree_nodeISt4pairIiiEEEE8allocateERS5_j, @function
_ZN9__gnu_cxx14__alloc_traitsISaISt13_Rb_tree_nodeISt4pairIiiEEEE8allocateERS5_j:
	push	ebp
	mov	ebp, esp
	sub	esp, 8
	sub	esp, 4
	push	0
	push	DWORD PTR [ebp+12]
	push	DWORD PTR [ebp+8]
	call	_ZN9__gnu_cxx13new_allocatorISt13_Rb_tree_nodeISt4pairIiiEEE8allocateEjPKv
	add	esp, 16
	leave
	ret
	.size	_ZN9__gnu_cxx14__alloc_traitsISaISt13_Rb_tree_nodeISt4pairIiiEEEE8allocateERS5_j, .-_ZN9__gnu_cxx14__alloc_traitsISaISt13_Rb_tree_nodeISt4pairIiiEEEE8allocateERS5_j
	.section	.text._ZN9__gnu_cxx13new_allocatorISt4pairIiiEE9constructEPS2_RKS2_,"axG",@progbits,_ZN9__gnu_cxx13new_allocatorISt4pairIiiEE9constructEPS2_RKS2_,comdat
	.align 2
	.weak	_ZN9__gnu_cxx13new_allocatorISt4pairIiiEE9constructEPS2_RKS2_
	.type	_ZN9__gnu_cxx13new_allocatorISt4pairIiiEE9constructEPS2_RKS2_, @function
_ZN9__gnu_cxx13new_allocatorISt4pairIiiEE9constructEPS2_RKS2_:
	push	ebp
	mov	ebp, esp
	sub	esp, 8
	mov	eax, DWORD PTR [ebp+12]
	sub	esp, 8
	push	eax
	push	8
	call	_ZnwjPv
	add	esp, 16
	mov	ecx, eax
	test	ecx, ecx
	je	.L171
	mov	eax, DWORD PTR [ebp+16]
	mov	edx, DWORD PTR [eax+4]
	mov	eax, DWORD PTR [eax]
	mov	DWORD PTR [ecx], eax
	mov	DWORD PTR [ecx+4], edx
.L171:
	nop
	leave
	ret
	.size	_ZN9__gnu_cxx13new_allocatorISt4pairIiiEE9constructEPS2_RKS2_, .-_ZN9__gnu_cxx13new_allocatorISt4pairIiiEE9constructEPS2_RKS2_
	.section	.text._ZN9__gnu_cxx13new_allocatorISt13_Rb_tree_nodeISt4pairIiiEEE8allocateEjPKv,"axG",@progbits,_ZN9__gnu_cxx13new_allocatorISt13_Rb_tree_nodeISt4pairIiiEEE8allocateEjPKv,comdat
	.align 2
	.weak	_ZN9__gnu_cxx13new_allocatorISt13_Rb_tree_nodeISt4pairIiiEEE8allocateEjPKv
	.type	_ZN9__gnu_cxx13new_allocatorISt13_Rb_tree_nodeISt4pairIiiEEE8allocateEjPKv, @function
_ZN9__gnu_cxx13new_allocatorISt13_Rb_tree_nodeISt4pairIiiEEE8allocateEjPKv:
	push	ebp
	mov	ebp, esp
	sub	esp, 8
	sub	esp, 12
	push	DWORD PTR [ebp+8]
	call	_ZNK9__gnu_cxx13new_allocatorISt13_Rb_tree_nodeISt4pairIiiEEE8max_sizeEv
	add	esp, 16
	cmp	eax, DWORD PTR [ebp+12]
	setb	al
	test	al, al
	je	.L173
	call	_ZSt17__throw_bad_allocv
.L173:
	mov	edx, DWORD PTR [ebp+12]
	mov	eax, edx
	add	eax, eax
	add	eax, edx
	sal	eax, 3
	sub	esp, 12
	push	eax
	call	_Znwj
	add	esp, 16
	leave
	ret
	.size	_ZN9__gnu_cxx13new_allocatorISt13_Rb_tree_nodeISt4pairIiiEEE8allocateEjPKv, .-_ZN9__gnu_cxx13new_allocatorISt13_Rb_tree_nodeISt4pairIiiEEE8allocateEjPKv
	.section	.text._ZNK9__gnu_cxx13new_allocatorISt13_Rb_tree_nodeISt4pairIiiEEE8max_sizeEv,"axG",@progbits,_ZNK9__gnu_cxx13new_allocatorISt13_Rb_tree_nodeISt4pairIiiEEE8max_sizeEv,comdat
	.align 2
	.weak	_ZNK9__gnu_cxx13new_allocatorISt13_Rb_tree_nodeISt4pairIiiEEE8max_sizeEv
	.type	_ZNK9__gnu_cxx13new_allocatorISt13_Rb_tree_nodeISt4pairIiiEEE8max_sizeEv, @function
_ZNK9__gnu_cxx13new_allocatorISt13_Rb_tree_nodeISt4pairIiiEEE8max_sizeEv:
	push	ebp
	mov	ebp, esp
	mov	eax, 178956970
	pop	ebp
	ret
	.size	_ZNK9__gnu_cxx13new_allocatorISt13_Rb_tree_nodeISt4pairIiiEEE8max_sizeEv, .-_ZNK9__gnu_cxx13new_allocatorISt13_Rb_tree_nodeISt4pairIiiEEE8max_sizeEv
	.ident	"GCC: (Ubuntu 5.4.0-6ubuntu1~16.04.9) 5.4.0 20160609"
	.section	.note.GNU-stack,"",@progbits
